(dp0
I0
S''
p1
sI1
VCN1CCCCC1
p2
sI2
VC1=CNC=C1
p3
sI3
VCC1=CN=CC=C1
p4
sI4
VCC1=CC(C)=NC=C1
p5
sI5
VFC1=NC=CC=C1
p6
sI6
VC1N2CN3CN1CN(C2)C3
p7
sI7
VC1CN=C2CCCN2C1
p8
sI8
VC1CN=C2NCCCN2C1
p9
sI9
VCN(C)C1=CC=N(=O)C=C1
p10
sI10
VOn1nnc2ccccc21
p11
sI11
VO=C(N1C=CN=C1)N1C=CN=C1
p12
sI12
VO=C1NS(=O)(=O)C2=C1C=CC=C2
p13
sI13
VO=C(O)C1=CC=CC(C(=O)O)=N1=O
p14
sI14
VOC(C1=CC=CC=C1)(C1=CC=CC=C1)[C@@H]1CCCN1
p15
sI15
VO=C1N(Br)C(=O)N(Br)C(=O)N1Br
p16
sI16
V[H][C@]12C[C@@]3([H])C4=CCO[C@@]5([H])CC(=O)N6C7=C(C=CC=C7)[C@@]1(CCN2C4)[C@]6([H])[C@]53[H]
p17
sI17
V[H][C@]12C[C@@]3([H])C4=CCO[C@@]5([H])CC(=O)N6C7=C(C=C(OC)C(OC)=C7)[C@@]1(CCN2C4)[C@]6([H])[C@]53[H]
p18
sI18
VO=C1OC2(C3=CC(Br)=C(O)C(Br)=C3OC3=C2C=C(Br)C(O)=C3Br)C2=C1C=CC=C2
p19
sI19
VO=C1OC2(C3=CC(I)=C(O)C(I)=C3OC3=C2C=C(I)C(O)=C3I)C2=C1C(Cl)=C(Cl)C(Cl)=C2Cl
p20
sI20
VNC1=NC=NC2=C1N=CN2[C@@H]1O[C@H](COP(=O)(O)OP(=O)(O)OP(=O)(O)O)[C@@H](O)[C@H]1O
p21
sI21
VNC(=O)C1=CN([C@@H]2O[C@H](COP(=O)(O)OP(=O)(O)OC[C@H]3O[C@@H](N4C=NC5=C4N=CN=C5N)[C@H](OP(=O)(O)O)[C@@H]3O)[C@@H](O)[C@H]2O)C=CC1
p22
sI22
V[H][C@@]12O[C@@]3([H])O[C@H](CO)[C@@]([H])(O[C@@]4([H])O[C@H](CO)[C@@]([H])(O[C@@]5([H])O[C@H](CO)[C@@]([H])(O[C@@]6([H])O[C@H](CO)[C@@]([H])(O[C@@]7([H])O[C@H](CO)[C@@]([H])(O[C@@]8([H])O[C@H](CO)[C@@]([H])(O[C@@]([H])(O[C@@H]1CO)[C@H](O)[C@H]2O)[C@H](O)[C@H]8O)[C@H](O)[C@H]7O)[C@H](O)[C@H]6O)[C@H](O)[C@H]5O)[C@H](O)[C@H]4O)[C@H](O)[C@H]3O
p23
sI23
VNC(=O)C1=CN([C@@H]2O[C@H](COP(=O)(O)OP(=O)(O)OC[C@H]3O[C@@H](N4C=NC5=C4N=CN=C5N)[C@H](O)[C@@H]3O)[C@@H](O)[C@H]2O)C=CC1
p24
sI24
VCC1CO1
p25
sI25
VClCC1CO1
p26
sI26
VOC1CN2CCC1CC2
p27
sI27
VO=C(O)[C@@H]1CCCN1
p28
sI28
VO=C(O)[C@H]1CCCN1
p29
sI29
V[H][C@@]12CCCCN1C[C@@H]1C[C@H]2CN2CCCC[C@]12[H]
p30
sI30
V[H][C@]1([C@@H](O)CO)OC(=O)C(O)=C1O
p31
sI31
V[H][C@](O)(C1=CC=NC2=C1C=CC=C2)[C@@]1([H])C[C@@H]2CCN1C[C@@H]2C=C
p32
sI32
V[H][C@@]1([C@]([H])(O)C2=CC=NC3=CC=CC=C32)C[C@@H]2CCN1C[C@@H]2C=C
p33
sI33
VOC[C@H]1O[C@H](O[C@]2(CO)O[C@H](CO)[C@@H](O)[C@@H]2O)[C@H](O)[C@@H](O)[C@@H]1O
p34
sI34
V[H][C@]1([C@@H](O)C2=CC=NC3=CC=C(OC)C=C32)C[C@@H]2CCN1C[C@@H]2C=C
p35
sI35
VC=CC1CN2CCC1CC2C(O)c1ccnc2ccc(OC)cc12
p36
sI36
VC1CO1
p37
sI37
VC1CCOC1
p38
sI38
VC1CCSC1
p39
sI39
VC1CCNC1
p40
sI40
VCCC1CO1
p41
sI41
VC=N#N
p42
sI42
VC1CCNCC1
p43
sI43
VCN1CCCC1
p44
sI44
VC1COCCN1
p45
sI45
VC1COCCO1
p46
sI46
VC1CNCCN1
p47
sI47
VCCN1CCCCC1
p48
sI48
VCN1CCOCC1
p49
sI49
VCN1CCNCC1
p50
sI50
VCCN1CCOCC1
p51
sI51
VC=O
p52
sI52
VC1CN2CCC1CC2
p53
sI53
VC1=CSC=C1
p54
sI54
Vc1ccncc1
p55
sI55
VCC1(C)CCCC(C)(C)N1
p56
sI56
VC1CN2CCN1CC2
p57
sI57
VC1=CNN=C1
p58
sI58
VCN1C(C)(C)CCCC1(C)C
p59
sI59
Vc1c[nH]cn1
p60
sI60
VC=CC1=CC=NC=C1
p61
sI61
VCC1=NC=CC=C1
p62
sI62
VCC1=CC=NC=C1
p63
sI63
VC1=NC=NN1
p64
sI64
VCN1C=CN=C1
p65
sI65
VO=N1=CC=CC=C1
p66
sI66
VCC1=CC=CC(C)=N1
p67
sI67
VNC1=NC=CC=C1
p68
sI68
VOC1=NC=CC=C1
p69
sI69
VClC1=CC=CC=N1
p70
sI70
Vc1nnn[nH]1
p71
sI71
VCC1=CC(C)=NN1
p72
sI72
VCN1CCCC1=O
p73
sI73
VO=C1C=CC(=O)O1
p74
sI74
VCc1cc(C)nc(C)c1
p75
sI75
Vc1ccc2ncccc2c1
p76
sI76
VC1=CC=C2C=NC=CC2=C1
p77
sI77
VO=S1(=O)CCCC1
p78
sI78
VCC1=NC=CN1C
p79
sI79
VCN1CCN(C)C1=O
p80
sI80
VCc1cnc(C)c(C)c1
p81
sI81
VCN(C)C1=NC=CC=C1
p82
sI82
VCN(C)c1ccncc1
p83
sI83
VCN1CCCN(C)C1=O
p84
sI84
VC1=CC=C2NN=NC2=C1
p85
sI85
Vc1ccc(-c2ccccn2)nc1
p86
sI86
VO=C1CCC(=O)N1O
p87
sI87
VO=C1CCC(=O)N1Cl
p88
sI88
VO=C1CCC(=O)N1Br
p89
sI89
VO=C1CCC(=O)N1I
p90
sI90
V[2H]C1=NC([2H])=C([2H])C([2H])=C1[2H]
p91
sI91
VOC1=C2N=CC=CC2=CC=C1
p92
sI92
VCC1(C)OC(=O)CC(=O)O1
p93
sI93
VN#CC1=C(C#N)NC=N1
p94
sI94
VO=C1OC(=O)C2=CC=CC=C12
p95
sI95
VC1=CN=C(N2CCCC2)C=C1
p96
sI96
VCN1C(=O)CC2=CC=CC=C21
p97
sI97
VFC1=NC(F)=NC(F)=N1
p98
sI98
VClC1=NC(Cl)=NC(Cl)=N1
p99
sI99
VCC(C)(C)C1=CC=CC(C(C)(C)C)=N1
p100
sI100
VC1=CC2=CC=C3C=CC=NC3=C2N=C1
p101
sI101
VCC1=CC(C(C)(C)C)=NC(C(C)(C)C)=C1
p102
sI102
VO=C1C2=C(C=CC=C2)C(=O)N1O
p103
sI103
VO=C1C2=C(C=CC=C2)C(=O)N1Br
p104
sI104
VO=C(O)C1=CC=CC(C(=O)O)=N1
p105
sI105
VCN1C(=O)CC(=O)N(C)C1=O
p106
sI106
VO=C1C2=C(C=CC=C2)OC2=C1C=CC=C2
p107
sI107
VO=C1O[IH2](O)C2=CC=CC=C12
p108
sI108
VO=C1C2=CC=CC=C2SC2=C1C=CC=C2
p109
sI109
VCCN(CC)C(=O)N1CCN(C)CC1
p110
sI110
VC1=CC=C2SC3=C(C=CC=C3)NC2=C1
p111
sI111
VCC1(C)C(=O)N(Cl)C(=O)N1Cl
p112
sI112
VCC1(C)C(=O)N(Br)C(=O)N1Br
p113
sI113
VCC1(C)C(=O)N(I)C(=O)N1I
p114
sI114
VCOC1=NC(Cl)=NC(OC)=N1
p115
sI115
VCC1=NC2=C3N=C(C)C=CC3=CC=C2C=C1
p116
sI116
VC1=CN=C(SSC2=NC=CC=C2)C=C1
p117
sI117
VNC(=O)C1=CN(CC2=CC=CC=C2)C=CC1
p118
sI118
VCC1=C(C)C2=CC=C3C(C)=C(C)C=NC3=C2N=C1
p119
sI119
VCC(=O)O[IH2]1OC(=O)C2=C1C=CC=C2
p120
sI120
VO=S1(=O)NS(=O)(=O)C2=C1C=CC=C2
p121
sI121
VO=C1N(Cl)C(=O)N(Cl)C(=O)N1Cl
p122
sI122
VCCOC(=O)C1=C(C)NC(C)=C(C(=O)OCC)C1
p123
sI123
VCC1=NC=C(COP(=O)(O)O)C(C=O)=C1O
p124
sI124
VO=C(/N=N/C(=O)N1CCCCC1)N1CCCCC1
p125
sI125
VCCCCOCCOCCOCC1=C(CCC)C=C2OCOC2=C1
p126
sI126
VC1=CC=C(C2=C3C=CC(=N3)C(C3=CC=CC=C3)=C3C=CC(=C(C4=CC=CC=C4)C4=NC(=C(C5=CC=CC=C5)C5=CC=C2N5)C=C4)N3)C=C1
p127
sI127
V[H]B(C(C)C(C)C)C(C)C(C)C
p128
sI128
VCCOC(=O)Cl
p129
sI129
VCC(C)(C)C(=O)Cl
p130
sI130
VO=C(O)C(=O)O
p131
sI131
V[SeH]C1=CC=CC=C1
p132
sI132
VO=C1CCCCC1
p133
sI133
VCC(=O)OC(C)=O
p134
sI134
VBrCC1=CC=CC=C1
p135
sI135
VCCOC(=O)CC(C)=O
p136
sI136
V[H][C@](O)(CNC)[C@@]([H])(O)[C@]([H])(O)[C@]([H])(O)CO
p137
sI137
VCC(C)(C)C(=O)OC(=O)C(C)(C)C
p138
sI138
VO=C1C(Cl)=C(Cl)C(=O)C(Cl)=C1Cl
p139
sI139
VCN(C)C1=CC=CC2=CC=CC(N(C)C)=C21
p140
sI140
VClC(C1=CC=CC=C1)(C1=CC=CC=C1)C1=CC=CC=C1
p141
sI141
VCC1=CC(C)=C(S(=O)(=O)ON)C(C)=C1
p142
sI142
VC1=CN=C(C2=NN=C(C3=NC=CC=C3)N=N2)C=C1
p143
sI143
VO=N(=O)C1=CC(N(=O)=O)=C(O)C(N(=O)=O)=C1
p144
sI144
VNC1CCCCC1
p145
sI145
VNCC1CCNCC1
p146
sI146
V[H]C(=O)C1=CC=CC=C1
p147
sI147
VCC1=CC=C(N)C=C1
p148
sI148
VO=C(Cl)C1=CC=CC=C1
p149
sI149
VO=C=NC1=CC=CC=C1
p150
sI150
VOC1=C(O)C=CC=C1
p151
sI151
VCCOP(=O)(Cl)OCC
p152
sI152
VCC1(C)CC(=O)CC(=O)C1
p153
sI153
VNC1=CC=CC=C1C(=O)O
p154
sI154
VC1=CC(N2CCCC2)=CC=N1
p155
sI155
VCC1=CC=C(S(N)(=O)=O)C=C1
p156
sI156
VCc1ccc(S(=O)(=O)O)cc1
p157
sI157
VO=C1[N-]C(=O)C2=CC=CC=C12.[K+]
p158
sI158
VCC1=C(C(=O)OC(C)(C)C)CC(C(=O)OC(C)(C)C)=C(C)N1
p159
sI159
VCCN
p160
sI160
VCCI
p161
sI161
VNCCO
p162
sI162
VOCCO
p163
sI163
VSCCS
p164
sI164
VCC(C)(C)S
p165
sI165
VCCNC(C)C
p166
sI166
VCC1CCCCC1
p167
sI167
VC[O-].[Mg+2]
p168
sI168
VCC=O
p169
sI169
VNC=O
p170
sI170
VCC(C)(C)[Si](C)(C)Cl
p171
sI171
VCCCCNCCCC
p172
sI172
VCC(N)=S
p173
sI173
VCC(=O)O
p174
sI174
VCS(C)=O
p175
sI175
VCOC(OC)N(C)C
p176
sI176
VC=CC(C)=O
p177
sI177
VN=C(N)N
p178
sI178
VCC(C)(C)C=O
p179
sI179
VCCC(=O)O
p180
sI180
VCCOC(C)=O
p181
sI181
VO=C(O)CS
p182
sI182
VCC(=O)C(=O)O
p183
sI183
VCS(=O)(=O)Cl
p184
sI184
VCC(C)OC(=O)Cl
p185
sI185
V[Li]C1=CC=CC=C1
p186
sI186
VSC1=CC=CC=C1
p187
sI187
VN=C(N)S(=O)O
p188
sI188
VCc1cccc(O)c1
p189
sI189
VN#CC(C#N)=C(C#N)C#N
p190
sI190
VCOc1ccccc1
p191
sI191
VN#Cc1ccccc1
p192
sI192
VCCC(=O)OC(=O)CC
p193
sI193
VCN(C)c1ccccc1
p194
sI194
VCCOP(=S)(S)OCC
p195
sI195
VCCN=C=NCCCN(C)C
p196
sI196
VC[N+]1([O-])CCOCC1
p197
sI197
VO=[N+]([O-])c1ccccc1
p198
sI198
VCOC1=CC=C(O)C=C1
p199
sI199
VC[Si](C)(C)C(C(N)=O)[Si](C)(C)C
p200
sI200
VC1=CC=C(NC2=CC=CC=C2)C=C1
p201
sI201
VC1CCC2=NCCCN2CC1
p202
sI202
VCOC1=CC=C(C(=O)O)C=C1
p203
sI203
VCOC(=O)N=NC(=O)OC
p204
sI204
VO=C(Cl)OCC1=CC=CC=C1
p205
sI205
VCCOC(=O)C(Br)C(=O)OCC
p206
sI206
VO=C(O)C(O)C(O)C(=O)O
p207
sI207
VCC1=CC=C(S(=O)[O-])C=C1.[Na+]
p208
sI208
VO=P(Cl)(Cl)OC1=CC=CC=C1
p209
sI209
VClP(C1=CC=CC=C1)C1=CC=CC=C1
p210
sI210
VO=C(OC(=O)C1=CC=CC=C1)C1=CC=CC=C1
p211
sI211
V[H]N1C(=O)N(Br)C(=O)N(Br)C1=O
p212
sI212
VO=N(=O)C1=C(S(=O)(=O)Cl)C=CC=C1
p213
sI213
VCN(C)N=NC1=C(C(N)=O)N=CN1
p214
sI214
VO=S(=O)(C1=CC=CC=C1)N1OC1C1=CC=CC=C1
p215
sI215
VCCOC(=O)N1C2=CC=CC=C2C=CC1OCC
p216
sI216
VCNC
p217
sI217
VC=CC=C
p218
sI218
VCC(C)N
p219
sI219
VNCCN
p220
sI220
VClCCCl
p221
sI221
VBrCCBr
p222
sI222
VCC(C)(C)N
p223
sI223
VCCNCC
p224
sI224
VCCCCN
p225
sI225
VNCCCN
p226
sI226
VCN(C)CCN
p227
sI227
VCCN(CC)CC
p228
sI228
VCC(C)NC(C)C
p229
sI229
VC[Si](C)(Cl)Cl
p230
sI230
VCN(C)CCCN
p231
sI231
VCCN(C(C)C)C(C)C
p232
sI232
VCC(=O)Cl
p233
sI233
VC=CCO
p234
sI234
VC=CCBr
p235
sI235
VNCCNCCN
p236
sI236
VOCCNCCO
p237
sI237
VNC(N)=S
p238
sI238
VCC(C)C=O
p239
sI239
VCN(C)C=O
p240
sI240
VCCOC(OCC)OCC
p241
sI241
VCC(C)(O)C#N
p242
sI242
VC=CC(=O)OC
p243
sI243
VCC(=O)C(C)=O
p244
sI244
VCOC(=O)Cl
p245
sI245
VO=C(O)CCl
p246
sI246
VC#CC1=CC=CC=C1
p247
sI247
V[H]B1C2CCCC1CCC2
p248
sI248
VN#CC(Cl)(Cl)Cl
p249
sI249
VNC1=CC=CC=C1
p250
sI250
VClC1=CC=CC=C1
p251
sI251
V[H]P(=O)(OCC)OCC
p252
sI252
VCC1=CC=C(S)C=C1
p253
sI253
VO=C(O)/C=C\u005cC(=O)O
p254
sI254
VCC(=O)C1=CC=CC=C1
p255
sI255
VSCC1=CC=CC=C1
p256
sI256
VC1CCC(NC2CCCCC2)CC1
p257
sI257
VOC1=CC=C(O)C=C1
p258
sI258
VNC1=C(N)C=CC=C1
p259
sI259
VClC1=C(Cl)C=CC=C1
p260
sI260
VNNC1=CC=CC=C1
p261
sI261
VBr[Mg]C1=CC=CC=C1
p262
sI262
VC[Si](C)(C)N1C=CN=C1
p263
sI263
VCS(=O)(=O)N=N#N
p264
sI264
VFS(F)(F)N1CCOCC1
p265
sI265
V[Li]C1=CC=CC2=CC=CC=C12
p266
sI266
VCCSC1=NN=NN1
p267
sI267
VO=S(=O)(Cl)C1=CC=CC=C1
p268
sI268
VCOC(=O)C#CC(=O)OC
p269
sI269
VO=N(=O)C1=NNC=N1
p270
sI270
VClN1N=NC2=C1C=CC=C2
p271
sI271
VCc1ccc(S(=O)(=O)Cl)cc1
p272
sI272
VO=C(Cl)C1=CC=CC=C1C(=O)Cl
p273
sI273
VO=C(OO)c1cccc(Cl)c1
p274
sI274
VCOS(=O)(=O)C1=CC=C(C)C=C1
p275
sI275
VS=C(N1C=CN=C1)N1C=CN=C1
p276
sI276
VO=C1C2=CC=CC=C2N=NN1O
p277
sI277
VCC1=CC=C(S(=O)(=O)NN)C=C1
p278
sI278
VC(=NC1CCCCC1)=NC1CCCCC1
p279
sI279
Vc1ccc(P(c2ccccc2)c2ccccc2)cc1
p280
sI280
VCC1=CC=C(S(=O)(=O)N2C=CN=C2)C=C1
p281
sI281
VC1COCCN2CCOCCOCCN(CCO1)CCOCCOCC2
p282
sI282
VNC1=CC=C(C=CC2=C(S(=O)(=O)O)C=C(N)C=C2)C(S(=O)(=O)O)=C1
p283
sI283
VCC(C)O
p284
sI284
VCNN
p285
sI285
VCCCC[O-].[Na+]
p286
sI286
VCOC(C)(C)OC
p287
sI287
VCC(C)=O
p288
sI288
VOCC(O)CO
p289
sI289
VC1=CCCC1
p290
sI290
VCCN(CC)[Si](C)(C)C
p291
sI291
VNC(N)=O
p292
sI292
VC[Si](C)(C)N[Si](C)(C)C
p293
sI293
VCc1ccccc1
p294
sI294
VCC(C)C(=O)O
p295
sI295
VNCC(=O)O
p296
sI296
VCOC(=O)OC
p297
sI297
VCOS(=O)(=O)OC
p298
sI298
VO=C(O)c1ccccc1
p299
sI299
VCSCCC(N)C(=O)O
p300
sI300
VCCN(CC)P(N(CC)CC)N(CC)CC
p301
sI301
VCCOC(=O)OC(=O)OCC
p302
sI302
VC1=CC=C(SSC2=CC=CC=C2)C=C1
p303
sI303
VS=P(C1=CC=CC=C1)(C1=CC=CC=C1)C1=CC=CC=C1
p304
sI304
VCC1=CC=C(P(C2=CC=C(C)C=C2)C2=CC=C(C)C=C2)C=C1
p305
sI305
VO=P(Cl)(OC1=CC=CC=C1)OC1=CC=CC=C1
p306
sI306
VNC1=NC(=O)N([C@H]2CC[C@@H](CO)O2)C=C1
p307
sI307
VNOC1=C(N(=O)=O)C=C(N(=O)=O)C=C1
p308
sI308
VCC1=CC=CC=C1P(C1=CC=CC=C1C)C1=C(C)C=CC=C1
p309
sI309
VC1=CC=C(P(CCCCP(C2=CC=CC=C2)C2=CC=CC=C2)C2=CC=CC=C2)C=C1
p310
sI310
VCCCC(=O)N1CCCN(C2=NC3=C(C=C(OC)C(OC)=C3)C(N)=N2)CC1
p311
sI311
VCN
p312
sI312
VC[Sn](C)(C)O
p313
sI313
VCC#N
p314
sI314
VCCC(C)=O
p315
sI315
VNC(CO)(CO)CO
p316
sI316
VO=CC(=O)O
p317
sI317
VCC(=O)CC(C)=O
p318
sI318
VCNC1=CC=CC=C1
p319
sI319
VNCC1=CC=CC=C1
p320
sI320
VCN(C)C(OCC(C)(C)C)OCC(C)(C)C
p321
sI321
VO=C(O)C(F)(F)F
p322
sI322
VCP(C)C1=CC=CC=C1
p323
sI323
VCC1=CC=CC(N)=C1C
p324
sI324
VCOC1=CC=C(C(C)=O)C=C1
p325
sI325
VCCN(CC)C1=CC=CC=C1
p326
sI326
VC1=CC=C(PC2=CC=CC=C2)C=C1
p327
sI327
VCP(C1=CC=CC=C1)C1=CC=CC=C1
p328
sI328
VC1=CC=C([P-]C2=CC=CC=C2)C=C1.[Li+]
p329
sI329
VCCCC[Sn](CCCC)(CCCC)N=N#N
p330
sI330
VCCP(C1=CC=CC=C1)C1=CC=CC=C1
p331
sI331
VCCCC[Sn](CCCC)(CCCC)O[Sn](CCCC)(CCCC)CCCC
p332
sI332
VO=P(C1=CC=CC=C1)(C1=CC=CC=C1)C1=CC=CC=C1
p333
sI333
VO=C(OC(=O)C(F)(F)F)C(F)(F)F
p334
sI334
VN#CC1=C(C#N)C(=O)C(Cl)=C(Cl)C1=O
p335
sI335
VO=N(=O)C1=CC=CC(S(=O)(=O)[O-])=C1.[Na+]
p336
sI336
VC1=CC=C(P(CP(C2=CC=CC=C2)C2=CC=CC=C2)C2=CC=CC=C2)C=C1
p337
sI337
VC1=CC=C(P(CCP(C2=CC=CC=C2)C2=CC=CC=C2)C2=CC=CC=C2)C=C1
p338
sI338
VO=C(O[IH2](OC(=O)C(F)(F)F)C1=CC=CC=C1)C(F)(F)F
p339
sI339
VFC1=C(F)C(F)=C(P(C2=C(F)C(F)=C(F)C(F)=C2F)C2=C(F)C(F)=C(F)C(F)=C2F)C(F)=C1F
p340
sI340
VCCS
p341
sI341
VOCCS
p342
sI342
VCCC(C)O
p343
sI343
VCCC#N
p344
sI344
VCC(=O)S
p345
sI345
VN#CCC#N
p346
sI346
VO=C(O)CCS
p347
sI347
VCCCCCC(=O)O
p348
sI348
VCN(C)C(=O)N(C)C
p349
sI349
VO=C1C=CC(=O)C=C1
p350
sI350
VO=C(Cl)C(Cl)(Cl)Cl
p351
sI351
VCOS(=O)(=O)C(F)(F)F
p352
sI352
VO=C(O)C1=CC=CC=C1O
p353
sI353
VO=C(O)CC(O)(CC(=O)O)C(=O)O
p354
sI354
VCC(C)(C)C1=CC=NC(C2=NC=CC(C(C)(C)C)=C2)=C1
p355
sI355
VNN
p356
sI356
VCNCCNC
p357
sI357
VC1CCC2CCCCC2C1
p358
sI358
VCN(C)C(=O)Cl
p359
sI359
VCC(C)N=C=NC(C)C
p360
sI360
VNOS(=O)(=O)O
p361
sI361
VOCC1=CC=CC=C1
p362
sI362
VC1=NCCCN2CCCCC12
p363
sI363
VO=S(=O)(O)CCN1CCN(CCO)CC1
p364
sI364
VC#C
p365
sI365
VCC(C)[N-]C(C)C.[Li+]
p366
sI366
VC1=CCCCC1
p367
sI367
VC[C@H]1CC[C@@](C)(O)CC1
p368
sI368
VC=CC[Si](C)(C)C
p369
sI369
VCCOC=O
p370
sI370
VCCCC(=O)O
p371
sI371
S'[Na+].[O-]N=O'
p372
sI372
VCN(C)P(N(C)C)N(C)C
p373
sI373
VNCCC(=O)O
p374
sI374
VCC1=CC(C)=CC(C)=C1
p375
sI375
VOC1=CC=CC(O)=C1
p376
sI376
VO=C(O)C1=CC=CC(Cl)=C1
p377
sI377
VOC1=CC=CC(O)=C1O
p378
sI378
VO=C(O)C1=CC=CC(N(=O)=O)=C1
p379
sI379
VCCOC(=O)N=NC(=O)OCC
p380
sI380
VNC1=CC=C(S(=O)(=O)O)C=C1
p381
sI381
VCC(C)(C)C1=CC(C(C)(C)C)=NC(C(C)(C)C)=N1
p382
sI382
VClP(Cl)(C1=CC=CC=C1)(C1=CC=CC=C1)C1=CC=CC=C1
p383
sI383
VBrP(Br)(C1=CC=CC=C1)(C1=CC=CC=C1)C1=CC=CC=C1
p384
sI384
VFC1=CC=C(P(C2=CC=C(F)C=C2)C2=CC=C(F)C=C2)C=C1
p385
sI385
VFC(F)(F)C1=CC=C(P(C2=CC=C(C(F)(F)F)C=C2)C2=CC=C(C(F)(F)F)C=C2)C=C1
p386
sI386
VCN(C)C
p387
sI387
VCOP(OC)OC
p388
sI388
VCCOP(OCC)OCC
p389
sI389
VO=P(Cl)(Cl)Cl
p390
sI390
VO=P(Br)(Br)Br
p391
sI391
VCC(C)COC(=O)Cl
p392
sI392
VCCOC(=O)OCC
p393
sI393
VC[Si](C)(C)C=N#N
p394
sI394
VClC1=CC=C(Cl)C(Cl)=C1
p395
sI395
VClC1=CC=CC(Cl)=C1Cl
p396
sI396
VC1CCC(P(C2CCCCC2)C2CCCCC2)CC1
p397
sI397
VN#CC1(N=NC2(C#N)CCCCC2)CCCCC1
p398
sI398
VCCCCC
p399
sI399
VCI
p400
sI400
VCP(C)C
p401
sI401
VC[S-].[Na+]
p402
sI402
VBrCBr
p403
sI403
VCC[S-].[Na+]
p404
sI404
VCCCCO
p405
sI405
VOCCCO
p406
sI406
VCCP(CC)CC
p407
sI407
VClP(Cl)Cl
p408
sI408
VClC(Cl)C(Cl)Cl
p409
sI409
VOCCOCCO
p410
sI410
Vc1ccccc1
p411
sI411
VCOC(OC)OC
p412
sI412
VCCCCCCCCCCCCS
p413
sI413
VCC(=O)[S-].[K+]
p414
sI414
VCC(=O)NBr
p415
sI415
VCC(C)(C)C(=O)O
p416
sI416
VCC(C)CCON=O
p417
sI417
VCN(C)C(=N)N(C)C
p418
sI418
VOc1ccccc1
p419
sI419
VO=C(O)C(Cl)(Cl)Cl
p420
sI420
VO=C(Cl)OC(Cl)(Cl)Cl
p421
sI421
VCCCCC(CC)C(=O)[O-].[Na+]
p422
sI422
VOB(O)C1=CC=CC=C1
p423
sI423
VO=C(O)C1=CC=CC=C1F
p424
sI424
V[H]B1OC2=C(C=CC=C2)O1
p425
sI425
VCS(=O)(=O)OS(C)(=O)=O
p426
sI426
VO=C(O)C1=CC=C(N(=O)=O)C=C1
p427
sI427
VO=P(Cl)(C1=CC=CC=C1)C1=CC=CC=C1
p428
sI428
VO=C1OI(=O)(O)C2=CC=CC=C12
p429
sI429
VC1=CC=C([SiH](C2=CC=CC=C2)C2=CC=CC=C2)C=C1
p430
sI430
VO=C(OOC(=O)C1=CC=CC=C1)C1=CC=CC=C1
p431
sI431
VOC1=CC=C2C=CC=CC2=C1C1=C(O)C=CC2=C1C=CC=C2
p432
sI432
VCOC1=CC=C(P2(=S)SP(=S)(C3=CC=C(OC)C=C3)S2)C=C1
p433
sI433
VSCCCS
p434
sI434
VCC(C)N(Cl)C(C)C
p435
sI435
VCC(N)=O
p436
sI436
VC=CC1=CC=CC=C1
p437
sI437
VCOP(=O)(OC)OC
p438
sI438
VN#CC1=CC=C(C#N)C=C1
p439
sI439
VO=P(Cl)(Cl)C1=CC=CC=C1
p440
sI440
VO=C(OC1=CC=CC=C1)OC1=CC=CC=C1
p441
sI441
VO=C(OO)C1=CC=C(N(=O)=O)C=C1
p442
sI442
Vc1ccc(OP(Oc2ccccc2)Oc2ccccc2)cc1
p443
sI443
V[H][Na]
p444
sI444
VCl
p445
sI445
VCO
p446
sI446
VCCCO
p447
sI447
VCCCN
p448
sI448
VCC[Mg]I
p449
sI449
VCCCC[Mg]Br
p450
sI450
VCCOCCO
p451
sI451
VCC[SiH](CC)CC
p452
sI452
VCC(C)(C)OO
p453
sI453
VClSSCl
p454
sI454
VClC(Cl)(Cl)Cl
p455
sI455
VCCCN(CCC)CCC
p456
sI456
VO=C(Cl)Cl
p457
sI457
V[K+].[N-]=C=O
p458
sI458
VCC(=O)OO
p459
sI459
VC1=CC2CCC1C2
p460
sI460
VS=P(Cl)(Cl)Cl
p461
sI461
VO=C(O)C(F)F
p462
sI462
VO=S(=O)(O)Cl
p463
sI463
VO=C(O)C(Cl)Cl
p464
sI464
VCCN(CC)C(F)(F)C(F)Cl
p465
sI465
VS1SSSSSSS1
p466
sI466
VCN(C)CC1=CC=CC=C1
p467
sI467
VS=P(=S)SP(=S)=S
p468
sI468
VCN(C)P(=O)(N(C)C)N(C)C
p469
sI469
VO=C([O-])C1=CC=CC=C1.[Na+]
p470
sI470
VNS(=O)(=O)C1=CC=CC=C1
p471
sI471
VN#N=NS(=O)(=O)C1=CC=C(N(=O)=O)C=C1
p472
sI472
VC1CCC2OCCOCCOC3CCCCC3OCCOCCOC2C1
p473
sI473
VC1=CC2=C(C=C1)OCCOCCOC1=C(C=CC=C1)OCCOCCO2
p474
sI474
VCCBr
p475
sI475
VC[Mg]I
p476
sI476
V[Li]CCCC
p477
sI477
VC=O
p478
sI478
VC[Si](C)(C)Cl
p479
sI479
VCN(C)CCO
p480
sI480
VCOCCOC
p481
sI481
VCl[AlH3](Cl)Cl
p482
sI482
VO=CO
p483
sI483
VCC(C)CNCC(C)C
p484
sI484
VCC=NO
p485
sI485
V[H]N=N#N
p486
sI486
V[H]P(=O)(O)O
p487
sI487
VO=S(Cl)Cl
p488
sI488
VC1=CCCC=CCC1
p489
sI489
V[N-]=[N+]=[N-].[Na+]
p490
sI490
VCCN(=O)=O
p491
sI491
VC=COC(C)=O
p492
sI492
VCC(=O)C(C)(C)C
p493
sI493
VCC(C)(C)ON=O
p494
sI494
VCC(O)C(=O)O
p495
sI495
VO=S(=O)(Cl)Cl
p496
sI496
V[O-][Cl+3]([O-])([O-])O
p497
sI497
VCC1=CC=C(S(=O)O)C=C1
p498
sI498
VO=C(OO)c1ccccc1
p499
sI499
VO=S([O-])S(=O)[O-].[Na+]
p500
sI500
VOn1nnc2cccnc21
p501
sI501
VN#N=NC1=CC=C(N(=O)=O)C=C1
p502
sI502
VO=C(C1=NC=CN1)C1=NC=CN1
p503
sI503
VCC1=CC=C(S(=O)(=O)N=N#N)C=C1
p504
sI504
VO=C1C2=CC=CC=C2S(=O)(=O)N1Br
p505
sI505
VClP1(Cl)=NP(Cl)(Cl)=NP(Cl)(Cl)=N1
p506
sI506
VCC(C)C1=CC(C(C)C)=C(S(=O)(=O)Cl)C(C(C)C)=C1
p507
sI507
VCC(C)C1=CC=CC=C1
p508
sI508
VBrC1=CC=CC=C1
p509
sI509
VCl[Se]C1=CC=CC=C1
p510
sI510
VO=C=NS(=O)(=O)Cl
p511
sI511
V[2H]C([2H])([2H])S(=O)C([2H])([2H])[2H]
p512
sI512
VO=C(c1ccccc1)c1ccccc1
p513
sI513
VO=N(=O)C1=CC=C(O)C(N(=O)=O)=C1
p514
sI514
VO=N(=O)C1=CC=C(O)C=C1
p515
sI515
VCC1=CC=CC2=C1N(=O)=CC=C2
p516
sI516
VO=C(O)c1ccccc1C(=O)OO
p517
sI517
VO=C(O)C1=CC=CC=C1C1=C2C=C(Br)C(=O)C(Br)=C2OC2=C(Br)C(O)=C(Br)C=C21
p518
sI518
VCC1=CC=C(O)C=C1
p519
sI519
VCC(=N[Si](C)(C)C)O[Si](C)(C)C
p520
sI520
VO=C1C(=O)C(Cl)=C(Cl)C(Cl)=C1Cl
p521
sI521
VReaxys Name borane-THF
p522
sI522
VOC1=CC(O)=CC(O)=C1
p523
sI523
VCC(C)(C)OOC(=O)C1=CC=CC=C1
p524
sI524
VCCC(C)(C)O
p525
sI525
VCC=C(C)C
p526
sI526
VC[Si](Cl)(Cl)Cl
p527
sI527
VCl[Si](Cl)(Cl)Cl
p528
sI528
VO=C(Cl)C(=O)Cl
p529
sI529
VC1COCCOCCOCCO1
p530
sI530
Vc1ccc(Oc2ccccc2)cc1
p531
sI531
VO=P(O)(OC1=CC=CC=C1)OC1=CC=CC=C1
p532
sI532
VFC(F)(F)C(OS(OC(C1=CC=CC=C1)(C(F)(F)F)C(F)(F)F)(C1=CC=CC=C1)C1=CC=CC=C1)(C1=CC=CC=C1)C(F)(F)F
p533
sI533
VC1=CC=C2C=CC=CC2=C1
p534
sI534
VCCO[Si](OCC)(OCC)OCC
p535
sI535
VCC1(C)CCCC(C)(C)N1[O]
p536
sI536
VO=N1=C(Cl)C=CC=C1Cl
p537
sI537
VO=C(O)C(F)(F)C(F)(F)C(F)(F)F
p538
sI538
VCC[N+](CC)(CC)S(=O)(=O)[N-]C(=O)OC
p539
sI539
VCS(=O)(=O)O
p540
sI540
VIC1=CC=CC=C1
p541
sI541
VC1=CC=C2CCCCC2=C1
p542
sI542
VCC(C)COC(=O)N1C2=C(C=CC=C2)C=CC1OCC(C)C
p543
sI543
VC1=COC(P(C2=CC=CO2)C2=CC=CO2)=C1
p544
sI544
VReaxys Name borane-pyridine complex
p545
sI545
VC1COCCOCCOCCOCCO1
p546
sI546
VC1COCCOCCOCCOCCOCCO1
p547
sI547
VCC(C)(C)C1=CC(C(C)(C)C)=NC(C(C)(C)C)=C1
p548
sI548
VC[SiH](C)Cl
p549
sI549
VC[Si](C)(C)[Si](C)(C)C
p550
sI550
VC1=CC=C(C2=CC=CC=C2)C=C1
p551
sI551
S'B.Cc1ccccn1'
p552
sI552
VO=C1C2=CC=CC=C2C2=C1C=CC=C2
p553
sI553
VN#Cc1c2ccccc2c(C#N)c2ccccc12
p554
sI554
VO=S(=O)([O-])[N+]1=CC=CC=C1
p555
sI555
VCSC
p556
sI556
VCCCS
p557
sI557
VICI
p558
sI558
VCCN(C)C
p559
sI559
VCCOCC
p560
sI560
VCC(Br)Br
p561
sI561
VCCSCC
p562
sI562
VCC(C)(C)OCl
p563
sI563
VC=CC(C)(C)C
p564
sI564
VN#CBr
p565
sI565
VCC(=O)Br
p566
sI566
VReaxys Name chloroform-d1
p567
sI567
VCOB(OC)OC
p568
sI568
VC[N+](=O)[O-]
p569
sI569
VC[Si](C)(C)S[Si](C)(C)C
p570
sI570
VO=COO
p571
sI571
VCCCCN(CCCC)CCCC
p572
sI572
VCC(C)ON=O
p573
sI573
VCCOB(OCC)OCC
p574
sI574
VOCCN(CCO)CCO
p575
sI575
VClC(Cl)(Br)C(Cl)(Cl)Br
p576
sI576
VCCON=O
p577
sI577
VCO[Si](OC)(OC)OC
p578
sI578
VCN(C)CC(=O)O
p579
sI579
VCCCCON=O
p580
sI580
VCCCCCON=O
p581
sI581
VCC(C)OB(OC(C)C)OC(C)C
p582
sI582
VCC(=O)OOC(C)(C)C
p583
sI583
VCC(C)OP(OC(C)C)OC(C)C
p584
sI584
VC[Si](C)(C)P([Si](C)(C)C)[Si](C)(C)C
p585
sI585
VCCOP(=O)(O)O
p586
sI586
VCCCCOB(OCCCC)OCCCC
p587
sI587
VCCOP(=O)(OCC)OCC
p588
sI588
VCN(C)C(=C(N(C)C)N(C)C)N(C)C
p589
sI589
VCCCCCCCCCCCC(=O)OO
p590
sI590
VO=C(C(Cl)(Cl)Cl)C(Cl)(Cl)Cl
p591
sI591
VCC(C)(C#N)N=NC(C)(C)C#N
p592
sI592
VCC(C)(C)OOC(=O)C(=O)OOC(C)(C)C
p593
sI593
VO=C(O)CCP(CCC(=O)O)CCC(=O)O
p594
sI594
VFC(F)(F)COB(OCC(F)(F)F)OCC(F)(F)F
p595
sI595
VO=C(O)CN(CCN(CC(=O)O)CC(=O)O)CC(=O)O
p596
sI596
VC
p597
sI597
VCCO
p598
sI598
VC#N
p599
sI599
VCC(C)CCO
p600
sI600
V[H][C@@](O)(CS)[C@@]([H])(O)CS
p601
sI601
V[H][C@](N)(CS)C(=O)O
p602
sI602
V[H][C@](N)(CCCCN)C(=O)O
p603
sI603
V[H][C@@](O)([C@@]([H])(O)C=O)[C@]([H])(O)[C@]([H])(O)CO
p604
sI604
VO=C(O)C(O)C(O)C(=O)O
p605
sI605
VO=C(O)C(O)C(O)C(=O)O
p606
sI606
VO=C(O)C(S)C(S)C(=O)O
p607
sI607
V[H][C@](N)(CCCNC(=N)N)C(=O)O
p608
sI608
V[H][C@@](O)(C(=O)O)[C@@]([H])(O)[C@]([H])(O)[C@@]([H])(O)CO
p609
sI609
V[H][C@@](O)([C@@]([H])(O)C(=O)O)[C@]([H])(O)[C@]([H])(O)CO
p610
sI610
V[H][C@](N)(CCC(=O)N[C@@]([H])(CS)C(=O)NCC(=O)O)C(=O)O
p611
sI611
VC=C
p612
sI612
VCCCCCC
p613
sI613
VCCCCCCC
p614
sI614
VC[SiH](C)C
p615
sI615
VClCCl
p616
sI616
VCB(C)Br
p617
sI617
VICCI
p618
sI618
VCC(C)(C)Cl
p619
sI619
VCC(C)CO
p620
sI620
VCC[SiH](C)C
p621
sI621
VCC(C)(C)Br
p622
sI622
VCCCCS
p623
sI623
VCOC(C)(C)C
p624
sI624
V[2H]OC
p625
sI625
VCCCCCO
p626
sI626
VClC(Cl)Cl
p627
sI627
VBrC(Br)Br
p628
sI628
VCOCCO
p629
sI629
VC[Si](C)(C)Br
p630
sI630
VC[Si](C)(C)I
p631
sI631
V[2H]OCC
p632
sI632
VCC(C)OC(C)C
p633
sI633
VCCB(CC)CC
p634
sI634
VCO[Si](C)(C)C
p635
sI635
VCCN(CC)C(C)C
p636
sI636
VClC(Cl)(Cl)Br
p637
sI637
VN#CN
p638
sI638
VCCCCOCCCC
p639
sI639
VBrC(Br)(Br)Br
p640
sI640
VCN(C)CCN(C)C
p641
sI641
VCCCCCCCCS
p642
sI642
VOCC(F)(F)F
p643
sI643
V[2H]OC([2H])([2H])[2H]
p644
sI644
VC[SiH](C)O[SiH](C)C
p645
sI645
VCC(C)[SiH](C(C)C)C(C)C
p646
sI646
VCCO[SiH](C)OCC
p647
sI647
VCN(C)CCCN(C)C
p648
sI648
VCN(C)(C)=O
p649
sI649
VCC(C)(C)OOC(C)(C)C
p650
sI650
VCOCCOCCOC
p651
sI651
VC[Si](C)(C)O[Si](C)(C)C
p652
sI652
VC[Si](C)(C)C#N
p653
sI653
VCC(=O)N(C)C
p654
sI654
VCC(C)C(N)=O
p655
sI655
VCS(C)(=O)=O
p656
sI656
VCCCCB(CCCC)CCCC
p657
sI657
VCCCCP(CCCC)CCCC
p658
sI658
VCCCCCCCCCC(C)(C)S
p659
sI659
VCC(C)(C)P(C(C)(C)C)C(C)(C)C
p660
sI660
VCCO[SiH](OCC)OCC
p661
sI661
VCC(=O)NO
p662
sI662
V[2H]OC(C)=O
p663
sI663
VNCCN(CCN)CCN
p664
sI664
VClCCN(CCCl)CCCl
p665
sI665
VC[Si](C)(C)OO[Si](C)(C)C
p666
sI666
VClC(Cl)(Cl)C(Cl)(Cl)Cl
p667
sI667
VFC(F)(Br)C(F)(F)Br
p668
sI668
VCC(C)N(=O)=O
p669
sI669
VCS(N)(=O)=O
p670
sI670
VCN(C)CCN(C)CCN(C)C
p671
sI671
VCCS(=O)(=O)O
p672
sI672
VCC(C)(C)N(=O)=O
p673
sI673
VO=C(Br)C(=O)Br
p674
sI674
VCN=C(NC)N(C)C
p675
sI675
VCN(C)C(=S)N(C)C
p676
sI676
VCC(Cl)OC(=O)Cl
p677
sI677
V[2H]OC(=O)C([2H])([2H])[2H]
p678
sI678
VCC(=O)ON(=O)=O
p679
sI679
VO=C(O)CC(=O)O
p680
sI680
VCC(C)OC(=O)OC(C)C
p681
sI681
VCC(=O)OOC(C)=O
p682
sI682
VO=C(O)CCC(=O)O
p683
sI683
VCCCCP(=O)(CCCC)CCCC
p684
sI684
VC[Si](C)(C)OP(=O)(O)O
p685
sI685
V[2H]OC(=O)C(F)(F)F
p686
sI686
VCCOP(=O)(C#N)OCC
p687
sI687
VCCCCCCCCP(CCCCCCCC)CCCCCCCC
p688
sI688
VO=C(O)CNCCNCC(=O)O
p689
sI689
VO=C(OC(Cl)(Cl)Cl)OC(Cl)(Cl)Cl
p690
sI690
VO=N(=O)C(N(=O)=O)(N(=O)=O)N(=O)=O
p691
sI691
VCCCCCCCCCCCC(=O)OOC(=O)CCCCCCCCCCC
p692
sI692
VO=C(O)CN(CCN(CC(=O)O)CC(=O)O)CCN(CC(=O)O)CC(=O)O
p693
sI693
VO=S(=O)(O)C(F)(F)F
p694
sI694
VO=S(=O)(Cl)C(F)(F)F
p695
sI695
VO=S(=O)(F)C(F)(F)C(F)(F)C(F)(F)C(F)(F)F
p696
sI696
VO=S(=O)(OS(=O)(=O)C(F)(F)F)C(F)(F)F
p697
sI697
V[C]=NC(C)(C)C
p698
sI698
VCl[Si](C1=CC=CC=C1)(C1=CC=CC=C1)C1=CC=CC=C1
p699
sI699
VO=P12OP3(=O)OP(=O)(O1)OP(=O)(O2)O3
p700
sI700
VReaxys Name DPPH radical
p701
sI701
S'[H]'
p702
sI702
VC[O-]
p703
sI703
VCCOP(O)OCC
p704
sI704
VOC(C(F)(F)F)C(F)(F)F
p705
sI705
VOC(C(F)(F)F)(C(F)(F)F)C(F)(F)F
p706
sI706
VCC(C)(C)C1=CC=CC(C(C)(C)C)=C1O
p707
sI707
VC1=CC=C([As](C2=CC=CC=C2)C2=CC=CC=C2)C=C1
p708
sI708
V[H]C(S)[C@@]([H])(O)[C@]([H])(O)CS
p709
sI709
VCC(C)=C(Cl)N(C)C
p710
sI710
VCCN(CC)S(F)(F)F
p711
sI711
VO=C(O)C(=O)Cl
p712
sI712
VO=C(O)C1=CC=CC=C1I
p713
sI713
VC[Si](C)(C)OS(=O)(=O)C(F)(F)F
p714
sI714
VN#CC1=CC=C(C#N)C2=C1C=CC=C2
p715
sI715
VCC(=O)O[IH2](OC(C)=O)C1=CC=CC=C1
p716
sI716
VC1CCCCC1
p717
sI717
VCOC(Cl)Cl
p718
sI718
VO=C=O
p719
sI719
V[C]=O
p720
sI720
S'Reaxys ID 1900511'
p721
sI721
S'B.CN(C)C'
p722
sI722
VC1=CCC=CC1
p723
sI723
VCN(C)S(F)(F)F
p724
sI724
S'B.CCN(CC)CC'
p725
sI725
VNC(N)=S(=O)=O
p726
sI726
VCC1=CC=C(C(C)C)C=C1
p727
sI727
VC[Si](C)(C)N=[N+]=[N-]
p728
sI728
VCSc1ccccc1
p729
sI729
VCC1=CC(C)=C(C)C(C)=C1C
p730
sI730
VC1=CC=C2C(=C1)C=CC1=C2C=CC=C1
p731
sI731
VC1=CC=C2C=C3C=CC=CC3=CC2=C1
p732
sI732
VO=C(OO)C(F)(F)F
p733
sI733
VFC(F)(F)C1=CC=CC=C1
p734
sI734
VC1=CC=C(SC2=CC=CC=C2)C=C1
p735
sI735
VCC(C)(OO)C1=CC=CC=C1
p736
sI736
VO=S(C1=CC=CC=C1)C1=CC=CC=C1
p737
sI737
VN#CC1=C(Cl)C=CC=C1Cl
p738
sI738
VC1=CC=C(C(C2=CC=CC=C2)C2=CC=CC=C2)C=C1
p739
sI739
VCN(C)C(=O)N=NC(=O)N(C)C
p740
sI740
VO=C(O)C1=CC=CC=C1N(=O)=O
p741
sI741
VCC(C)(C)OC(=O)OC(=O)OC(C)(C)C
p742
sI742
VCC(C)(C)OC(=O)N=NC(=O)OC(C)(C)C
p743
sI743
VCOC(=O)C1=C(C(=O)OC)C=CC=C1
p744
sI744
VCC1=CC(C(C)(C)C)=C(O)C(C(C)(C)C)=C1
p745
sI745
VCC(C)OC(=O)N=NC(=O)OC(C)C
p746
sI746
VOC1=C(F)C(F)=C(F)C(F)=C1F
p747
sI747
VO=C(O)C1=CC(N(=O)=O)=CC(N(=O)=O)=C1
p748
sI748
VCC(C)(C)C1=CC(=C2C=C(C(C)(C)C)C(=O)C(C(C)(C)C)=C2)C=C(C(C)(C)C)C1=O
p749
sI749
VReaxys Name dimethylsulfide borane complex
p750
sI750
VCN(C)C1CCCCC1
p751
sI751
VO=P(O)(O)O
p752
sI752
VO=[IH2]c1ccccc1
p753
sI753
S'Reaxys ID 1923630'
p754
sI754
VC[Si](C)(C)[SiH]([Si](C)(C)C)[Si](C)(C)C
p755
sI755
VCN(C(=O)C(F)(F)F)[Si](C)(C)C
p756
sI756
VCC(C)(C)N=S(Cl)C1=CC=CC=C1
p757
sI757
VO=P(Cl)(Cl)OP(=O)(Cl)Cl
p758
sI758
VO=S(=O)(O)C1=CC2=CC=CC=C2C=C1
p759
sI759
VC1=CC=C(B(C2=CC=CC=C2)C2=CC=CC=C2)C=C1
p760
sI760
VCCCCB(CCCC)OS(=O)(=O)C(F)(F)F
p761
sI761
VN#N=NS(=O)(=O)C1=CC=C(C(=O)O)C=C1
p762
sI762
VO=P1(O)OC2=C(C3=C(C=CC=C3)C=C2)C2=C(C=CC3=C2C=CC=C3)O1
p763
sI763
VC[Si](C)(C)ON
p764
sI764
VClP(Cl)(Cl)(Cl)Cl
p765
sI765
VO=S(=O)(O)O
p766
sI766
S'Reaxys ID 2040563'
p767
sI767
VCC(C)(C)ON=NOC(C)(C)C
p768
sI768
VCC1(C)C(=S)C(C)(C)C1=S
p769
sI769
VCC1=CC(=O)C=C(C)C1=O
p770
sI770
VCl[IH2](Cl)c1ccccc1
p771
sI771
VCC(C)(C)C1=CC=C(O)C(O)=C1
p772
sI772
VC[Si](C)(C)OP(O[Si](C)(C)C)O[Si](C)(C)C
p773
sI773
VCC(C)(C#N)/N=N/C(C)(C)C#N
p774
sI774
VC1=CC=C([Se][Se]C2=CC=CC=C2)C=C1
p775
sI775
VN#N=NS(=O)(=O)C(F)(F)F
p776
sI776
VO=C1C(Br)=CC(Br)(Br)C=C1Br
p777
sI777
VO=C(Cl)C1=C(Cl)C=C(Cl)C=C1Cl
p778
sI778
V[H]P(=O)(OC1=CC=CC=C1)OC1=CC=CC=C1
p779
sI779
VCOC(OC)(C(=O)C1=CC=CC=C1)C1=CC=CC=C1
p780
sI780
VO=C(O)C1=C(F)C(F)=C(F)C(F)=C1F
p781
sI781
VCC(C)(OOC(C)(C)C1=CC=CC=C1)C1=CC=CC=C1
p782
sI782
VC1=CC=C(OB(OC2=CC=CC=C2)OC2=CC=CC=C2)C=C1
p783
sI783
VN#N=NP(=O)(OC1=CC=CC=C1)OC1=CC=CC=C1
p784
sI784
VCC1=CC(SC2=CC(C)=C(O)C(C(C)(C)C)=C2)=CC(C(C)(C)C)=C1O
p785
sI785
VO=N(=O)C1=CC=C(OP(=O)(O)OC2=CC=C(N(=O)=O)C=C2)C=C1
p786
sI786
VCC(C)NC1CCCCC1
p787
sI787
VCN(C1CCCCC1)C1CCCCC1
p788
sI788
V[C]=NC(C)(C)CC(C)(C)C
p789
sI789
VCC(C)(C)C1=CC=C(C2=CC=C(C(C)(C)C)C=C2)C=C1
p790
sI790
VCOP(=S)(NC(C)C)OC1=C(Cl)C=C(Cl)C=C1
p791
sI791
VO=N(=O)C1=CC=C(S(=O)(=O)O)C(N(=O)=O)=C1
p792
sI792
VCC1=CC=C(S(=O)(=O)O[IH2](O)C2=CC=CC=C2)C=C1
p793
sI793
VCC1=CC=C(S(=O)(=O)NNS(=O)(=O)C2=CC=C(C)C=C2)C=C1
p794
sI794
VFS(F)(F)F
p795
sI795
VO=S(=O)(F)Cl
p796
sI796
VC[SiH](C)C1=CC=CC=C1
p797
sI797
V[H][C@@](C)(N)C1=CC=CC=C1
p798
sI798
V[H][C@](C)(CC1=CC=CC=C1)NC
p799
sI799
VCC1=C(S(=O)(=O)O)C=CC=C1
p800
sI800
VCN(C)C(=O)/N=N/C(=O)N(C)C
p801
sI801
VC1=CC=C(NC2=CC3=CC=CC=C3C=C2)C=C1
p802
sI802
VO=N(=O)C1=CC=C(S(=O)(=O)O)C=C1
p803
sI803
VCC1(C)C2CCC1(CS(=O)(=O)O)C(=O)C2
p804
sI804
VCCCCCCCCCCCCC1=CC=C(S(=O)(=O)O)C=C1
p805
sI805
VCC(=O)NC1=CC=C(S(=O)(=O)N=N#N)C=C1
p806
sI806
VCC1=CC=C(S(=O)(=O)OS(=O)(=O)C2=CC=C(C)C=C2)C=C1
p807
sI807
VClP1(Cl)=NP(Cl)(Cl)=NP(Cl)(Cl)=NP(Cl)(Cl)=N1
p808
sI808
VCCB(CC)OC
p809
sI809
VClB(Cl)C1=CC=CC=C1
p810
sI810
VCC1=CC=C([IH2](F)F)C=C1
p811
sI811
VO=C(N=NC(=O)OCC1=CC=CC=C1)OCC1=CC=CC=C1
p812
sI812
VO=[Se](O[Se](=O)C1=CC=CC=C1)C1=CC=CC=C1
p813
sI813
S'CC[O+](CC)[B-](F)(F)F'
p814
sI814
VCN(C)C(=NC(C)(C)C)N(C)C
p815
sI815
VCOCCOCCN(CCOCCOC)CCOCCOC
p816
sI816
VCC(C)(C)[Si](C)(C)OS(=O)(=O)C(F)(F)F
p817
sI817
VCC(C)C1=CC(C(C)C)=C(S(=O)(=O)N=N#N)C(C(C)C)=C1
p818
sI818
S'Reaxys ID 2408727'
p819
sI819
VCC1=CC=C(S(=O)(=O)N(Br)Br)C=C1
p820
sI820
VN=N
p821
sI821
V[H][Si](Cl)(Cl)Cl
p822
sI822
VO=C(O)C1=C(I(=O)=O)C=CC=C1
p823
sI823
VBrB1OC2=C(C=CC=C2)O1
p824
sI824
VCCCP(=O)(O)OP(=O)(O)CCC
p825
sI825
VNOP(=O)(C1=CC=CC=C1)C1=CC=CC=C1
p826
sI826
VCC(C)(C)C(=O)O[IH2](OC(=O)C(C)(C)C)C1=CC=CC=C1
p827
sI827
VC1CN[C@H](CN2CCCC2)C1
p828
sI828
VCCCCCCCCCCCCC1=C(S(=O)(=O)O)C=CC=C1
p829
sI829
VNNS(=O)(=O)C1=CC=CC=C1N(=O)=O
p830
sI830
VO=[PH](O)C1=CC=CC=C1
p831
sI831
VO=P(O)(C1=CC=CC=C1)C1=CC=CC=C1
p832
sI832
VN#N=NP(=O)(C1=CC=CC=C1)C1=CC=CC=C1
p833
sI833
VCC1(C)[C@@H]2CC[C@@]1(CS(=O)(=O)O)C(=O)C2
p834
sI834
VCC1(C)[C@H]2CC[C@]1(CS(=O)(=O)O)C(=O)C2
p835
sI835
VCOC1=CC=C(P(C2=CC=C(OC)C=C2)C2=CC=C(OC)C=C2)C=C1
p836
sI836
VC1=CC=C(P(CCCP(C2=CC=CC=C2)C2=CC=CC=C2)C2=CC=CC=C2)C=C1
p837
sI837
VCOC1=CC(OC)=C(P(C2=C(OC)C=C(OC)C=C2OC)C2=C(OC)C=C(OC)C=C2OC)C(OC)=C1
p838
sI838
VFC1=C(F)C(F)=C(B(C2=C(F)C(F)=C(F)C(F)=C2F)C2=C(F)C(F)=C(F)C(F)=C2F)C(F)=C1F
p839
sI839
V[SiH3]C1=CC=CC=C1
p840
sI840
V[H]B(C1CCCCC1)C1CCCCC1
p841
sI841
VC1=CC=C([SiH2]C2=CC=CC=C2)C=C1
p842
sI842
VC1=CC=C(P(C2=CC=CC=C2)C2=CC=CC=C2P(C2=CC=CC=C2)C2=CC=CC=C2)C=C1
p843
sI843
VC1=CC=C(P(CCCCCP(C2=CC=CC=C2)C2=CC=CC=C2)C2=CC=CC=C2)C=C1
p844
sI844
VO=P(OC1=C(F)C(F)=C(F)C(F)=C1F)(C1=CC=CC=C1)C1=CC=CC=C1
p845
sI845
VNS(=O)(=O)O
p846
sI846
VNC(C1CCCCC1)C1CCCCC1
p847
sI847
VO=S(=O)(C1=CC=CC(S(=O)(=O)N(Cl)Cl)=C1)N(Cl)Cl
p848
sI848
VO=S(=O)(C1=CC=CC(S(=O)(=O)N(Br)Br)=C1)N(Br)Br
p849
sI849
VCC1(C)[C@@H]2CC[C@@]1(CS(=O)(=O)O)C(=O)C2
p850
sI850
VClB(C1CCCCC1)C1CCCCC1
p851
sI851
VCC1=C(C(=O)OC(=O)C2=C(C)C=CC=C2N(=O)=O)C(N(=O)=O)=CC=C1
p852
sI852
S'[Cl-].[K+]'
p853
sI853
S'[Cl-].[Cs+]'
p854
sI854
VF
p855
sI855
V[H]S[H]
p856
sI856
VB
p857
sI857
V[H][O+]([H])[H]
p858
sI858
VClSCl
p859
sI859
VN#N
p860
sI860
VCC(C)(C)[Mg]Br
p861
sI861
VCC(C)C[Mg]Br
p862
sI862
VFB(F)F
p863
sI863
V[Li]C#N
p864
sI864
VCCCC[Mg]CCCC
p865
sI865
VC[Mg]Br
p866
sI866
VO=S=O
p867
sI867
VCC[Mg]Br
p868
sI868
VO=S(=O)=O
p869
sI869
VCC(C)(C)[Mg]Cl
p870
sI870
VCS(=O)C[Na]
p871
sI871
V[O]Cl=O
p872
sI872
VCCCC[Sn](Cl)(Cl)CCCC
p873
sI873
VC[Si](C)(C)C[Mg]Cl
p874
sI874
VCCCC[Sn](Cl)(CCCC)CCCC
p875
sI875
VNS(=O)(=O)Cl
p876
sI876
VCl[Si](Cl)(Cl)[Si](Cl)(Cl)Cl
p877
sI877
VCC(C)O[Ti](C)(OC(C)C)OC(C)C
p878
sI878
VCl[Mg]C1=CC=CC=C1
p879
sI879
S'Cl.NO'
p880
sI880
VC1=CC=C([SnH](C2=CC=CC=C2)C2=CC=CC=C2)C=C1
p881
sI881
V[Na]C(C1=CC=CC=C1)(C1=CC=CC=C1)C1=CC=CC=C1
p882
sI882
S'[NH4+].[Cl-]'
p883
sI883
VC[O-].[K+]
p884
sI884
VC[O-].[Li+]
p885
sI885
VCC[O-].[K+]
p886
sI886
VC[Cu-]C.[Li+]
p887
sI887
VN#C[Na]
p888
sI888
VCCC[O-].[Na+]
p889
sI889
VCC(C)(C)[O-].[K+]
p890
sI890
VC[N+](C)(C)C.[F-]
p891
sI891
VC[N+](C)(C)C.[H][O-]
p892
sI892
VCC[N-]CC.[Li+]
p893
sI893
VC[Si](C)(C)[O-].[K+]
p894
sI894
VCC(C)(C)O[O-].[Li+]
p895
sI895
VCC[N+](CC)(CC)CC.[I-]
p896
sI896
VC[N+](C)(C)CCO.[Cl-]
p897
sI897
VCC[N+](CC)(CC)CC.[Cl-]
p898
sI898
VCC[N+](CC)(CC)CC.[Br-]
p899
sI899
VCC(=O)[O-].[Li+]
p900
sI900
VCC(=O)O.N
p901
sI901
VC[N+](C)=CCl.[Cl-]
p902
sI902
VCCC(=O)[O-].[Na+]
p903
sI903
VCC1(C)CCCC(C)(C)[N-]1.[Li+]
p904
sI904
VCC1=CC=C(S(=O)(=O)O)C=C1.[H]O[H]
p905
sI905
VOCl(=O)(=O)=O.[Na+]
p906
sI906
VC1=NN=NN1.CC(C)NC(C)C
p907
sI907
V[K+].[O-]C1=CC=CC=C1
p908
sI908
VCCCC[N+](CCCC)(CCCC)CCCC.[F-]
p909
sI909
VCCCC[N+](CCCC)(CCCC)CCCC.[Br-]
p910
sI910
VCCCC[N+](CCCC)(CCCC)CCCC.[Cl-]
p911
sI911
VCCCC[N+](CCCC)(CCCC)CCCC.[H][O-]
p912
sI912
S'Reaxys ID 3572194'
p913
sI913
VC[N+]1=C(Cl)C=CC=C1.[I-]
p914
sI914
VCC[N+](CC)(CC)CC1=CC=CC=C1.[Cl-]
p915
sI915
VCN(C)[S+](N(C)C)N(C)C.C[Si-](C)(C)(F)F
p916
sI916
S'CCCC[N+](CCCC)(CCCC)CCCC.F[B-](F)(F)F'
p917
sI917
VCCN(CC)[S+](N(CC)CC)N(CC)CC.C[Si-](C)(C)(F)F
p918
sI918
VCCCC[N+](CCCC)(CCCC)CCCC.O=Cl(=O)(=O)[O-]
p919
sI919
VC[P+](OC1=CC=CC=C1)(OC1=CC=CC=C1)OC1=CC=CC=C1.[I-]
p920
sI920
VNC(=O)C1=CC=C[N+]([C@@H]2O[C@H](COP(=O)([O-])OP(=O)(O)OC[C@H]3O[C@@H](N4C=NC5=C4N=CN=C5N)[C@H](O)[C@@H]3O)[C@@H](O)[C@H]2O)=C1
p921
sI921
VC1=CC2=C(C=C1)N(O[P+](N1CCCC1)(N1CCCC1)N1CCCC1)N=N2.FP(F)(F)(F)(F)F
p922
sI922
VO=S(=O)([O-])C1=CC=CC(P(C2=CC(S(=O)(=O)[O-])=CC=C2)C2=CC(S(=O)(=O)[O-])=CC=C2)=C1.[Na+]
p923
sI923
S'F[B-](F)(F)F.c1ccc(cc1)c2cc([o+]c(c2)c3ccccc3)c4ccccc4'
p924
sI924
VO=C([O-])C1=CC=CC=C1C1=C2C=C(Br)C(=O)C(Br)=C2OC2=C(Br)C([O-])=C(Br)C=C21.[Na+]
p925
sI925
VN
p926
sI926
VO
p927
sI927
V[Ar]
p928
sI928
VBr
p929
sI929
VI
p930
sI930
V[Li]C
p931
sI931
VBr
p932
sI932
V[OH-]
p933
sI933
VF
p934
sI934
VCl
p935
sI935
VI
p936
sI936
V[H][H]
p937
sI937
VNO
p938
sI938
VOO
p939
sI939
VFCl
p940
sI940
VBrBr
p941
sI941
VII
p942
sI942
VC[Zn]C
p943
sI943
VC[AlH3](C)C
p944
sI944
S'O([2H])[2H]'
p945
sI945
VC[Mg]Cl
p946
sI946
V[Li]C(C)(C)C
p947
sI947
V[Li]C(C)CC
p948
sI948
VCC(C)[Mg]Cl
p949
sI949
VCC(C)[Mg]Br
p950
sI950
VO=O
p951
sI951
VCCCC[Mg]Cl
p952
sI952
VCC[AlH3](CC)CC
p953
sI953
V[N]=O
p954
sI954
VO=[N+]([O-])O
p955
sI955
VCC(C)C[AlH3](CC(C)C)CC(C)C
p956
sI956
VCCCC[SnH](CCCC)CCCC
p957
sI957
VN#N=[N-]
p958
sI958
VCN.[H]Cl
p959
sI959
VCNC.[H]Cl
p960
sI960
VCON.[H]Cl
p961
sI961
VCCNCC.[H]Cl
p962
sI962
VCC[Si](CC)(CC)OS(=O)(=O)C(F)(F)F
p963
sI963
VO=CO.[H]N([H])[H]
p964
sI964
VCC(C)[Si](OS(=O)(=O)C(F)(F)F)(C(C)C)C(C)C
p965
sI965
VN=C(N)N.[H]Cl
p966
sI966
VC[O-].[Na+]
p967
sI967
VOC1=C(C2=C(O)C=CC3=C2C=CC=C3)C2=C(C=CC=C2)C=C1
p968
sI968
VOC1=C(C2=C(O)C=CC3=C2C=CC=C3)C2=C(C=CC=C2)C=C1
p969
sI969
VN#C[K]
p970
sI970
VCC[O-].[Na+]
p971
sI971
VNC1=CC=CC=C1.[H]Cl
p972
sI972
VCC(C)[O-].[Na+]
p973
sI973
VCC1=CC(=C(C#N)C#N)C=C(/C=C/C2=CC=C(N(C)C)C=C2)O1
p974
sI974
VN#C[S-].[K+]
p975
sI975
VO=C[O-].[Na+]
p976
sI976
VN#CS.[H]N([H])[H]
p977
sI977
VCC(=O)[O-].[K+]
p978
sI978
VCC(=O)[O-].[Cs+]
p979
sI979
VCC(=O)[O-].[Na+]
p980
sI980
VC[S+](C)(C)=O.[I-]
p981
sI981
VOCl(=O)(=O)=O.[Li+]
p982
sI982
VCCOC(=S)[S-].[K+]
p983
sI983
VO=C([O-])CCl.[Na+]
p984
sI984
V[Na+].[O-]C1=CC=CC=C1
p985
sI985
V[Na+].[S-]C1=CC=CC=C1
p986
sI986
S'C[O+](C)C.F[B-](F)(F)F'
p987
sI987
V[Na+].[Se-]C1=CC=CC=C1
p988
sI988
VCCCCCCCCCCCC[N+](C)(C)C.[Br-]
p989
sI989
VO=C([O-])C(F)(F)F.[Na+]
p990
sI990
S'CC[O+](CC)CC.F[B-](F)(F)F'
p991
sI991
VCCCCCCCCCCCCCCCC[N+](C)(C)C.[Br-]
p992
sI992
VO=[S-](=O)C1=CC=CC=C1.[Na+]
p993
sI993
VCCCC[N+](CCCC)(CCCC)CCCC.[C-]#N
p994
sI994
VCCCCCCCCCCCCOS(=O)(=O)[O-].[Na+]
p995
sI995
VO=S(=O)([N-]Cl)C1=CC=CC=C1.[Na+]
p996
sI996
VCC1=CC=C(S(=O)(=O)[N-]Cl)C=C1.[Na+]
p997
sI997
VCC(=O)[O-].CCCC[N+](CCCC)(CCCC)CCCC
p998
sI998
VC[P+](C1=CC=CC=C1)(C1=CC=CC=C1)C1=CC=CC=C1.[Br-]
p999
sI999
VCCCC[N+](CCCC)(CCCC)CCCC.O=S(=O)([O-])O
p1000
sI1000
VCN(C)C1=CC=C2N=C3C=CC(N(C)C)=CC3=[S+]C2=C1.[Cl-]
p1001
sI1001
V[H]P([H])[H]
p1002
sI1002
V[15NH3]
p1003
sI1003
V[H]P(O)O
p1004
sI1004
VOB(O)O
p1005
sI1005
VF[Sb](F)F
p1006
sI1006
VCl[Sb](Cl)Cl
p1007
sI1007
VC[Sn](C)(C)[Sn](C)(C)C
p1008
sI1008
V[H]P([H])(=O)O
p1009
sI1009
VF[Sb](F)(F)(F)F
p1010
sI1010
VO=S(=O)(O)F
p1011
sI1011
VCCCC[Sn](CCCC)(CCCC)OC
p1012
sI1012
VCC1(C(F)(F)F)OO1
p1013
sI1013
VCCCC[Sn](CCCC)(CCCC)[Sn](CCCC)(CCCC)CCCC
p1014
sI1014
VC[Si](C)(C)N=C(O[Si](C)(C)C)C(F)(F)F
p1015
sI1015
VCP(C)C
p1016
sI1016
VCO.FB(F)F
p1017
sI1017
VC1CCNCC1.[H]Cl
p1018
sI1018
VC1=CC=NC=C1.[H]Br
p1019
sI1019
VC1=CC=NC=C1.[H]Cl
p1020
sI1020
VCC(C)[O-].[K+]
p1021
sI1021
VC[N+](C)(C)C.[Br-]
p1022
sI1022
VO=C[O-].[K+]
p1023
sI1023
VCCN(CC)CC.O=C(O)O
p1024
sI1024
S'[NH4+].[O-]C=O'
p1025
sI1025
VO=C(O)O.[H]N([H])[H]
p1026
sI1026
VC[Si](C)(C)[N-][Si](C)(C)C.[Na+]
p1027
sI1027
VO=S([O-])CO.[Na+]
p1028
sI1028
VReaxys Name pyridinium hydrobromide perbromide
p1029
sI1029
VC1=CC=C(P(C2=CC=CC=C2)C2=CC=CC=C2)C=C1.[H]Br
p1030
sI1030
VO=C([O-])C1=C(C(=O)O)C=CC=C1.[K+]
p1031
sI1031
VCN1C=[N+](C)C2=CC=CC=C21.[I-]
p1032
sI1032
VCC1=CC=C(S(=O)(=O)[O-])C=C1.[Na+]
p1033
sI1033
VC1=CC=NC=C1.O=S(=O)(O)C(F)(F)F
p1034
sI1034
VCC[N+](CC)(CC)CC.O=Cl(=O)(=O)[O-]
p1035
sI1035
S'Reaxys ID 3640706'
p1036
sI1036
VCC[N+]1=C(C2=CC=CC=C2)C2=C(C=CC(N)=C2)C2=C1C=C(N)C=C2.[Br-]
p1037
sI1037
VO=C([O-])C1=C(C2=C3C=C(I)C(=O)C(I)=C3OC3=C2C=C(I)C([O-])=C3I)C(Cl)=C(Cl)C(Cl)=C1Cl.[Na+]
p1038
sI1038
V[NaH]
p1039
sI1039
V[KH]
p1040
sI1040
VCC[Mg]Cl
p1041
sI1041
VCC1(C)OO1
p1042
sI1042
VO=S(=O)([O-])[O-]
p1043
sI1043
VO=C1OCCN1P(=O)(Cl)N1CCOC1=O
p1044
sI1044
V[H][C@]1([C@@H](O)C2=CC=NC3=C2C=C(OC)C=C3)C[C@@H]2CCN1C[C@@H]2C=C
p1045
sI1045
VO=S(=O)([O-])CCS.[Na+]
p1046
sI1046
VCCCCCCCCCCCCCCCC[N+](C)(C)C.[Cl-]
p1047
sI1047
S'F[B-](F)(F)F.c1ccc(cc1)C(c2ccccc2)c3ccccc3'
p1048
sI1048
VC1=CC=C([C+](C2=CC=CC=C2)C2=CC=CC=C2)C=C1.O=Cl(=O)(=O)[O-]
p1049
sI1049
S'O=[P]12O[P]3(=O)O[P](=O)(O1)O[P](=O)(O2)O3'
p1050
sI1050
S'Reaxys ID 3659912'
p1051
sI1051
S'S=[P]12S[P]3(=S)S[P](=S)(S1)S[P](=S)(S2)S3'
p1052
sI1052
S'Br[Pb]Br'
p1053
sI1053
VOCl
p1054
sI1054
VOBr
p1055
sI1055
VIB(I)I
p1056
sI1056
VFI(F)(F)(F)F
p1057
sI1057
VO=[Se](Cl)Cl
p1058
sI1058
VC[Sn](C)(Cl)Cl
p1059
sI1059
VCSC.[H]B([H])[H]
p1060
sI1060
VC1=CC=NC=C1.[H]B([H])[H]
p1061
sI1061
VNC(CO)(CO)CO.[H]Cl
p1062
sI1062
VC[AlH3](Cl)Cl
p1063
sI1063
VC1=CNC=N1.[H]Cl
p1064
sI1064
VCC[O-].[Mg+2]
p1065
sI1065
VCC[O-].[Tl+]
p1066
sI1066
VCC[O-].[AlH3+3]
p1067
sI1067
VC[AlH3](C)Cl
p1068
sI1068
VCC[AlH3](Cl)Cl
p1069
sI1069
VClC1=CC=NC=C1.[H]Cl
p1070
sI1070
VNC(N)=O.[H]OO[H]
p1071
sI1071
VCN(C)C.O=S(=O)=O
p1072
sI1072
VCC[AlH3](I)CC
p1073
sI1073
VCC[AlH3](Cl)CC
p1074
sI1074
VCC(=O)O.NCCO
p1075
sI1075
VCC(=O)O.CCN(CC)CC
p1076
sI1076
VCC(=O)[O-].[Mn+2]
p1077
sI1077
VCC(=O)[O-].[Pb+2]
p1078
sI1078
VCC(=O)[O-].[Tl+3]
p1079
sI1079
VCC(=O)[O-].[Tl+]
p1080
sI1080
V[H][B-](OC)(OC)OC.[Na+]
p1081
sI1081
VNC(N)=O.O=N(=O)O
p1082
sI1082
VC1=CC=NC=C1.O=S(=O)=O
p1083
sI1083
VCC(=O)O.NN
p1084
sI1084
VO=C([O-])C1=CC=CC=C1.[K+]
p1085
sI1085
VC1=CC=NC=C1.O=Cl(=O)(=O)O
p1086
sI1086
VO=C(O)CCP(CCC(=O)O)CCC(=O)O.[H]Cl
p1087
sI1087
VO=C([O-])N=NC(=O)[O-].[K+]
p1088
sI1088
S'Reaxys ID 3730728'
p1089
sI1089
VCC(=O)[O-].[H]O[H].[Na+]
p1090
sI1090
VCC(=O)[O-].[H]O[H].[Mn+3]
p1091
sI1091
VC1=CC=NC=C1.O=C(O)C(F)(F)F
p1092
sI1092
VCC[N+](CC)(CC)CC1=CC=CC=C1.[Br-]
p1093
sI1093
VCC1=C(CCO)SC=[N+]1C.[I-]
p1094
sI1094
S'[Br-].[Br-].[Br-].CCCC[N+](CCCC)(CCCC)CCCC.CCCC[N+](CCCC)(CCCC)CCCC.CCCC[N+](CCCC)(CCCC)CCCC'
p1095
sI1095
VCC[N+](CC)(CC)CC.FP(F)(F)(F)(F)F
p1096
sI1096
VCCCC[N+](CCCC)(CCCC)CCCC.[N-]=[N+]=[N-]
p1097
sI1097
VCc1ccc(S(=O)(=O)O)cc1.c1ccncc1
p1098
sI1098
V[H][C@](O)(CO)[C@@]1([H])OC(=O)C([O-])=C1O.[Na+]
p1099
sI1099
VCCCC[N+](CCCC)(CCCC)CC1=CC=CC=C1.[Cl-]
p1100
sI1100
VCCCC[N+](CCCC)(CCCC)CC1=CC=CC=C1.[Br-]
p1101
sI1101
VCC1=C(CCO)SC=[N+]1CC1=CC=CC=C1.[Cl-]
p1102
sI1102
VCC(=O)C[P+](C1=CC=CC=C1)(C1=CC=CC=C1)C1=CC=CC=C1.[Br-]
p1103
sI1103
VO=S(=O)([O-])C1=CC(P(C2=CC=CC=C2)C2=CC=CC=C2)=CC=C1.[Na+]
p1104
sI1104
VO=C([O-])CN(CCN(CC(=O)[O-])CC(=O)O)CC(=O)O.[Na+]
p1105
sI1105
VCC1=NC(N)=C(C[N+]2=CSC(CCO)=C2C)C=N1.[Cl-].[H]Cl
p1106
sI1106
VCC1=CC=C(S(=O)(=O)[O-])C=C1.C[N+]1(CCN=C=NC2CCCCC2)CCOCC1
p1107
sI1107
VCC1=NC=C(C[N+]2=CSC(CCOP(=O)(O)OP(=O)(O)O)=C2C)C(N)=N1.[Cl-]
p1108
sI1108
VNC(=O)C1=CC=C[N+]([C@@H]2O[C@H](COP(=O)([O-])OP(=O)(O)OC[C@H]3O[C@@H](N4C=NC5=C4N=CN=C5N)[C@H](OP(=O)(O)O)[C@@H]3O)[C@@H](O)[C@H]2O)=C1
p1109
sI1109
S'O=[Mg]'
p1110
sI1110
S'O=[Si]=O'
p1111
sI1111
S'O=[Pb]'
p1112
sI1112
S'O=[BiH2+]'
p1113
sI1113
VCl[SnH2]Cl
p1114
sI1114
S'[H]'
p1115
sI1115
V[2H]Cl
p1116
sI1116
VClCl
p1117
sI1117
VClI
p1118
sI1118
VBrI
p1119
sI1119
VClB(Cl)Cl
p1120
sI1120
VBrB(Br)Br
p1121
sI1121
VBrP(Br)Br
p1122
sI1122
VIP(I)I
p1123
sI1123
VCl[As](Cl)Cl
p1124
sI1124
VBr[In](Br)Br
p1125
sI1125
VO=NO
p1126
sI1126
VF[Si](F)(F)F
p1127
sI1127
VCl[Se](Cl)(Cl)Cl
p1128
sI1128
VBr[Sn](Br)(Br)Br
p1129
sI1129
VCl[Te](Cl)(Cl)Cl
p1130
sI1130
VO=S(O)O
p1131
sI1131
VO=[Se](O)O
p1132
sI1132
VBrP(Br)(Br)(Br)Br
p1133
sI1133
VO=I(=O)O
p1134
sI1134
VCCCC[Sb](CCCC)CCCC
p1135
sI1135
VO=[As](O)(O)O
p1136
sI1136
VO=[Cr](=O)(O)O
p1137
sI1137
VO=S([O-])[O-]
p1138
sI1138
VO=N(=O)N(=O)=O
p1139
sI1139
VCN(C)C.[H]Cl
p1140
sI1140
VCCN(CC)CC.[H]Cl
p1141
sI1141
VO=S(=O)([O-])OOS(=O)(=O)[O-]
p1142
sI1142
VCCOCC.FB(F)F
p1143
sI1143
VCC[O-].[Li+]
p1144
sI1144
VCC(C)[O-].[AlH3+3]
p1145
sI1145
VC[N+](C)(C)C.[Cl-]
p1146
sI1146
VN#C[Se-].[K+]
p1147
sI1147
VC[Si](C)(C)[O-].[Na+]
p1148
sI1148
VCC[N+](CC)(CC)CC.[H][O-]
p1149
sI1149
VC[N+](C)(C)CCO.[H][O-]
p1150
sI1150
VC1CCNCC1.CC(=O)O
p1151
sI1151
VNC(=O)O.[H]N([H])[H]
p1152
sI1152
VCCCC[N+](CCCC)(CCCC)CCCC.[I-]
p1153
sI1153
VC[N+](C)(C)C1=CC=CC=C1.[Br-]
p1154
sI1154
VC[N+](C)(C)CC1=CC=CC=C1.[Br-]
p1155
sI1155
VC[N+](C)(C)CC1=CC=CC=C1.[Cl-]
p1156
sI1156
VC[N+](C)(C)CC1=CC=CC=C1.[H][O-]
p1157
sI1157
S'CC[N+](CC)(CC)CC.F[B-](F)(F)F'
p1158
sI1158
S'[Br-].[Br-].[Br-].C[N+](C)(C)c1ccccc1.C[N+](C)(C)c2ccccc2.C[N+](C)(C)c3ccccc3'
p1159
sI1159
VCCCCCCCCCCCCS(=O)(=O)[O-].[Na+]
p1160
sI1160
VO=C([O-])CC(O)(CC(=O)[O-])C(=O)[O-].[Na+]
p1161
sI1161
VCCCC[N+](CCCC)(CCCC)CCCC.O=N(=O)[O-]
p1162
sI1162
VC1=CC=C2N=CC=CC2=C1.O=[Cr](=O)(O)O[Cr](=O)(=O)O
p1163
sI1163
VC1=CC=C(CN2C=[N+](CC3=CC=CC=C3)C3=C2C=CC=C3)C=C1.[Cl-]
p1164
sI1164
V[LiH]
p1165
sI1165
V[H][SeH]
p1166
sI1166
S'[H-].[K+]'
p1167
sI1167
VO=P(O)(O)OP(=O)(O)O
p1168
sI1168
VC[Si](C)(C)[N-][Si](C)(C)C.[SnH4+2]
p1169
sI1169
VC1=CC=NC=C1.O=[Cr](=O)=O
p1170
sI1170
VCCC(C)(C)[O-].[Na+]
p1171
sI1171
VCC(=O)[O-].[Fe+2]
p1172
sI1172
VO=C([O-])[O-].[Li+]
p1173
sI1173
VC[Si](C)(C)[N-][Si](C)(C)C.[K+]
p1174
sI1174
V[H][B-](C(C)CC)(C(C)CC)C(C)CC.[Li+]
p1175
sI1175
VCC(C)(C)C(=O)[O-].[K+]
p1176
sI1176
V[Na]C1=CC=CC2=C1C=CC=C2
p1177
sI1177
VCN1CCN(C)[C+]1Cl.[Cl-]
p1178
sI1178
VC[N+](C)(C)CC1=CC=CC=C1.[F-]
p1179
sI1179
VCCCCCCCC[N+](C)(CCCCCCCC)CCCCCCCC.[Cl-]
p1180
sI1180
VCNC.O=C(O)COC1=C(Cl)C=C(Cl)C=C1
p1181
sI1181
V[H][B-](OC(C)=O)(OC(C)=O)OC(C)=O.[Na+]
p1182
sI1182
VCCCC[N+](CCCC)(CCCC)CCCC.FP(F)(F)(F)(F)F
p1183
sI1183
VCl[P+](C1=CC=CC=C1)(C1=CC=CC=C1)C1=CC=CC=C1.[Cl-]
p1184
sI1184
S'CCCCC(CC)(CO)CO'
p1185
sI1185
VC1=CC=C(P(=[N+]=P(C2=CC=CC=C2)(C2=CC=CC=C2)C2=CC=CC=C2)(C2=CC=CC=C2)C2=CC=CC=C2)C=C1.[Cl-]
p1186
sI1186
VCCCCC(CC)COC(=O)CC(C(=O)OCC(CC)CCCC)S(=O)(=O)[O-].[Na+]
p1187
sI1187
VNC(=O)C1=C[N+]([C@@H]2O[C@H](COP(=O)(O)OP(=O)(O)OC[C@H]3O[C@@H](N4C=NC5=C4N=CN=C5N)[C@H](O)[C@@H]3O)[C@@H](O)[C@H]2O)=CC=C1
p1188
sI1188
VO=C([O-])C1=C(C2=C3C=C(I)C(=O)C(I)=C3OC3=C2C=C(I)C([O-])=C3I)C(Cl)=C(Cl)C(Cl)=C1Cl.[K+]
p1189
sI1189
S'[H-].[Li+]'
p1190
sI1190
S'[H-].[Na+]'
p1191
sI1191
VCC(C)C[AlH4]CC(C)C
p1192
sI1192
VCl[Mg]C1CCCC1
p1193
sI1193
VCCCC[Sn](=O)CCCC
p1194
sI1194
V[2H][Sn](CCCC)(CCCC)CCCC
p1195
sI1195
VC[Sn](C)(C)N=N#N
p1196
sI1196
VCC(C)(C)N.[H]B([H])[H]
p1197
sI1197
VCCCC[Sn](CCCC)(OC(C)=O)OC(C)=O
p1198
sI1198
VCCCC[Sn](Cl)(CCCC)O[Sn](Cl)(CCCC)CCCC
p1199
sI1199
VC[O-].[Ba+2]
p1200
sI1200
VC[S-].[Li+]
p1201
sI1201
VCCC[S-].[Li+]
p1202
sI1202
VCC(C)(C)[O-].[AlH3+3]
p1203
sI1203
VCCC(C)(C)[O-].[K+]
p1204
sI1204
VC[S+](C)Br.[Br-]
p1205
sI1205
VCCN(CC)CC.O=CO
p1206
sI1206
V[H][B-](CC)(CC)CC.[Li+]
p1207
sI1207
V[H][B-](CC)(CC)CC.[Na+]
p1208
sI1208
V[BH3-]C#N.[Na+]
p1209
sI1209
VCC[N+](CC)(CC)CC.[F-]
p1210
sI1210
VO=C([O-])O.[Na+]
p1211
sI1211
V[CH2-]S(C)=O.[Na+]
p1212
sI1212
VO=C([O-])[O-].[Na+]
p1213
sI1213
V[H][B-](C(C)CC)(C(C)CC)C(C)CC.[K+]
p1214
sI1214
VCCCCCCCCCCCC(=O)O[Sn](CCCC)(CCCC)OC(=O)CCCCCCCCCCC
p1215
sI1215
VOP(O)(=O)S.[Na+]
p1216
sI1216
VCC(C)[N-]C1CCCCC1.[Li+]
p1217
sI1217
VCC(C)(C)C(=O)[O-].[Na+]
p1218
sI1218
VCN1C=C[N+](C)=C1.[I-]
p1219
sI1219
VCCCC[P+](CCCC)(CCCC)CCCC.[Br-]
p1220
sI1220
VC1CCC([N-]C2CCCCC2)CC1.[Li+]
p1221
sI1221
VCCN=C=NCCC[N+](C)(C)C.[I-]
p1222
sI1222
VC1COCCN1.O=C(O)C(F)(F)F
p1223
sI1223
VCCCCCC[N+](CCCCCC)(CCCCCC)CCCCCC.[I-]
p1224
sI1224
VCC[N+]1=CSC(CCO)=C1C.[Br-]
p1225
sI1225
VCC[N+](CC)(CC)CC.O=I(=O)(=O)[O-]
p1226
sI1226
VCCCCCCCCCCCCCCCC[P+](CCCC)(CCCC)CCCC.[Br-]
p1227
sI1227
VCCCCCCCC[N+](CCCCCCCC)(CCCCCCCC)CCCCCCCC.[Br-]
p1228
sI1228
VCl[SiH2]Cl
p1229
sI1229
VCN(C)P(=NC(C)(C)C)(N(C)C)N(C)C
p1230
sI1230
VO=C(O)O.[H]N([H])[H]
p1231
sI1231
VOS(O)(=O)=O.[Mg+2]
p1232
sI1232
VReaxys Name tetra-N-butylammonium borohydride
p1233
sI1233
VC1=CC=NC=C1.O=[Cr](=O)(O)F
p1234
sI1234
VCC(C)(C)C1=CC=C(C2=CC=C(C(C)(C)C)C=C2)C=C1.[Li+]
p1235
sI1235
V[CaH2]
p1236
sI1236
VCOP(=O)(OC)C(=N#N)C(C)=O
p1237
sI1237
VCC(C)(C1=N[C@@H](C2=CC=CC=C2)CO1)C1=N[C@@H](C2=CC=CC=C2)CO1
p1238
sI1238
VO=C([O-])[O-].[K+]
p1239
sI1239
S'Reaxys ID 4284739'
p1240
sI1240
VCN(C)[P+](On1nnc2ccccc21)(N(C)C)N(C)C.F[P](F)(F)(F)(F)F
p1241
sI1241
VCC(C)(C1=N[C@@H](C(C)(C)C)CO1)C1=N[C@@H](C(C)(C)C)CO1
p1242
sI1242
VC=C[C@H]1CN2CC[C@H]1C[C@H]2[C@H](O)C1=CC=NC2=CC=C(OC)C=C21
p1243
sI1243
VO=S(=O)([O-])C(F)(F)F.[Li+]
p1244
sI1244
VCOC1=CC=CC(OC)=C1P(C1=C(OC)C=CC=C1OC)C1=C(OC)C=CC=C1OC
p1245
sI1245
VCC1=CC=C(S(=O)(=O)[O-])C=C1.CC[N+](CC)(CC)CC
p1246
sI1246
VCC1=CC(C)=C(S(=O)(=O)N2C=NC(N(=O)=O)=N2)C(C)=C1
p1247
sI1247
S'[NH4+].OC([O-])=O'
p1248
sI1248
VReaxys Name N,N,N',N'-tetramethyl-O-(N-succinimidyl)uronium tetrafluoroborate
p1249
sI1249
VC
p1250
sI1250
VFF
p1251
sI1251
VNS(N)(=O)=O
p1252
sI1252
V[H]Cl.[H]N([H])[H]
p1253
sI1253
V[2H]OS(=O)(=O)O[2H]
p1254
sI1254
VNO.O=S(=O)(O)O
p1255
sI1255
VO=C([O-])O.[K+]
p1256
sI1256
VO=C([O-])[O-].[Cs+]
p1257
sI1257
VCC(=O)OI1(OC(C)=O)(OC(C)=O)OC(=O)c2ccccc21
p1258
sI1258
VC1=CC=C2C=CC=CC2=C1.[Li+]
p1259
sI1259
S'Reaxys ID 4579869'
p1260
sI1260
VC1=CC=C2C=CC=CC2=C1.[Li+]
p1261
sI1261
VCCCC[N+]1=CN(C)C=C1.[Br-]
p1262
sI1262
VC[N+](C)(C)CC1=CC=CC=C1.ClICl
p1263
sI1263
VC[N+](C)(C)CC1=CC=CC=C1.ClI(Cl)(Cl)Cl
p1264
sI1264
VCCCC[N+](CCCC)(CCCC)CCCC.O=I(=O)(=O)[O-]
p1265
sI1265
S'CN(C)C(ON1C=CC=CC1=O)=[N+](C)C.F[B-](F)(F)F'
p1266
sI1266
VO=C([O-])C(O)C(O)C(=O)[O-].[K+].[Na+]
p1267
sI1267
VCCCC[N+](CCCC)(CCCC)CCCC.OP(O)(=O)OP(O)(=O)O
p1268
sI1268
S'CN(C)C(On1nnc2ccccc12)=[N+](C)C.F[B-](F)(F)F'
p1269
sI1269
VCCCC[N+](CCCC)(CCCC)CCCC.OS(O)(=O)=O.[H+]
p1270
sI1270
VReaxys Name tris(p-bromophenylammoniumyl) hexachloroantimonate
p1271
sI1271
VCN(C)[C+](ON1N=NC2=CC=CC=C21)N(C)C.FP(F)(F)(F)(F)F
p1272
sI1272
VC[N+](C)(C)CC1=CC=CC=C1.C[O-]
p1273
sI1273
VC1=CC=NC=C1.[H]F
p1274
sI1274
VO=S(=O)(NS(=O)(=O)C(F)(F)F)C(F)(F)F
p1275
sI1275
VCC1=CC(C)=[N+](F)C(C)=C1.O=S(=O)([O-])C(F)(F)F
p1276
sI1276
VO=C([O-])C1=C(C(=O)OO)C=CC=C1.[Mg+2]
p1277
sI1277
VO=S(=O)([O-])C(F)(F)F.[Ca+2]
p1278
sI1278
VCCCCN(CCCC)CCCC.O=P(O)(O)OP(=O)(O)O
p1279
sI1279
VC1=CC=C(P(C2=CC=CC=C2)C2=C(C3=C(P(C4=CC=CC=C4)C4=CC=CC=C4)C=CC4=C3C=CC=C4)C3=C(C=CC=C3)C=C2)C=C1
p1280
sI1280
VS
p1281
sI1281
S'[O-][O+]=O'
p1282
sI1282
V[H]Br.[H]N([H])[H]
p1283
sI1283
VO=N(=O)ON(=O)=O
p1284
sI1284
V[K+].[SH-]
p1285
sI1285
VON(=O)=O.[Hg+2]
p1286
sI1286
V[H]N([H])[H].[H]O[H]
p1287
sI1287
VNN.O
p1288
sI1288
V[H][N-][H].[K+]
p1289
sI1289
V[H][N-][H].[Na+]
p1290
sI1290
VO=S([O-])O.[Na+]
p1291
sI1291
VOS(=O)(=O)S.[Na+]
p1292
sI1292
S'O=[Pb]=O'
p1293
sI1293
S'[Mg++].[Br-].[Br-].CCOCC'
p1294
sI1294
S'[F-].[Na+]'
p1295
sI1295
V[MgH2]
p1296
sI1296
VCCCP1(=O)OP(=O)(CCC)OP(=O)(CCC)O1
p1297
sI1297
VCCN(CC)CC.O=S(=O)(O)O
p1298
sI1298
V[Na+].[O]S([O])(=O)=O
p1299
sI1299
VN#C[Cu-]C1=CC=CS1.[Li+]
p1300
sI1300
VCCCC[N+](CCCC)(CCCC)CCCC.[F-].[H]F
p1301
sI1301
VCCCC[N+](CCCC)(CCCC)CCCC.[F-].[H]O[H]
p1302
sI1302
VCS[S+](C)C.O=S(=O)([O-])C(F)(F)F
p1303
sI1303
VCCCC[N+](CCCC)(CCCC)CCCC.O=S(=O)([O-])[O-]
p1304
sI1304
VCCCC[N+](CCCC)(CCCC)CCCC.O=P([O-])(O)O
p1305
sI1305
VCCCC[N+](CCCC)(CCCC)CCCC.OS(=O)(=O)OO
p1306
sI1306
VCCCC[N+](CCCC)(CCCC)CCCC.O=S(=O)([O-])OOS(=O)(=O)[O-]
p1307
sI1307
VO=S(=O)(O)C1=CC2=C(O)C(=C1)CC1=C(O)C(=CC(S(=O)(=O)O)=C1)CC1=C(O)C(=CC(S(=O)(=O)O)=C1)CC1=C(O)C(=CC(S(=O)(=O)O)=C1)C2
p1308
sI1308
VNC(=O)C1=CN([C@@H]2O[C@H](COP(=O)([O-])OP(=O)([O-])OC[C@H]3O[C@@H](N4C=NC5=C4N=CN=C5N)[C@H](O)[C@@H]3O)[C@@H](O)[C@H]2O)C=CC1.[Na+]
p1309
sI1309
VO=NCl
p1310
sI1310
VCC(C)OC(=O)/N=N/C(=O)OC(C)C
p1311
sI1311
VCC1(C)C2CCC1(CS(=O)(=O)O)C(=O)C2
p1312
sI1312
V[H][C@@]1([C@H](O)C2=CC=NC3=C2C=C(O)C=C3)C[C@@H]2CCN1C[C@@H]2C=C
p1313
sI1313
VS=P1(C2=CC=C(OC3=CC=CC=C3)C=C2)SP(=S)(C2=CC=C(OC3=CC=CC=C3)C=C2)S1
p1314
sI1314
VC1=CC=C(P(C2=CC=CC=C2)C2=C(C3=C(P(C4=CC=CC=C4)C4=CC=CC=C4)C=CC4=C3C=CC=C4)C3=C(C=CC=C3)C=C2)C=C1
p1315
sI1315
VC1=CC=C(P(C2=CC=CC=C2)C2=C(C3=C(P(C4=CC=CC=C4)C4=CC=CC=C4)C=CC4=C3C=CC=C4)C3=C(C=CC=C3)C=C2)C=C1
p1316
sI1316
S'[Li+].[F-]'
p1317
sI1317
VO=I(=O)(=O)O
p1318
sI1318
VO=S(=O)(C1=CC=CC=C1)N(F)S(=O)(=O)C1=CC=CC=C1
p1319
sI1319
S'Br[Br-]Br.c1cc[nH+]cc1'
p1320
sI1320
VBrBr.C1=CC=C(P(C2=CC=CC=C2)C2=CC=CC=C2)C=C1
p1321
sI1321
VC[AlH3](OC1=C(C(C)(C)C)C=C(Br)C=C1C(C)(C)C)OC1=C(C(C)(C)C)C=C(Br)C=C1C(C)(C)C
p1322
sI1322
S'F[B-](F)(F)F.F[B-](F)(F)F.F[N+]12CC[N+](CCl)(CC1)CC2'
p1323
sI1323
VCC(=O)[IH2](C(C)=O)C1=CC=CC=C1
p1324
sI1324
VCC(=O)O.NCCN
p1325
sI1325
VCC1=CC(C)=C(N2[C]N(C3=C(C)C=C(C)C=C3C)C=C2)C(C)=C1
p1326
sI1326
V[H][C@](O)(CO)[C@@]1([H])OC(=O)C(O)=C1[O-].[Na+]
p1327
sI1327
S'CC[n+]1ccn(C)c1.F[B-](F)(F)F'
p1328
sI1328
VCC1=CC(C)=C(N2C=C[N+](C3=C(C)C=C(C)C=C3C)=C2)C(C)=C1.[Cl-]
p1329
sI1329
VFC(F)(F)C1=CC([B-](C2=CC(C(F)(F)F)=CC(C(F)(F)F)=C2)(C2=CC(C(F)(F)F)=CC(C(F)(F)F)=C2)C2=CC(C(F)(F)F)=CC(C(F)(F)F)=C2)=CC(C(F)(F)F)=C1.[Na+]
p1330
sI1330
VO=I(O)(O)(O)(O)O
p1331
sI1331
VCCN(CC)CC.F
p1332
sI1332
VCCN(CC)P1(=NC(C)(C)C)N(C)CCCN1C
p1333
sI1333
VCCN=C=NCCCN(C)C.CI
p1334
sI1334
VON1N=NC2=CC=CC=C21.[H]O[H]
p1335
sI1335
VCC(=O)O.CN(C)C(=N)N(C)C
p1336
sI1336
VC1=CC=C(P(C2=CC=CC=C2)C2=CC=CC=C2C2=C(P(C3=CC=CC=C3)C3=CC=CC=C3)C=CC=C2)C=C1
p1337
sI1337
VCCN=C=NCCCN(C)C.Cl
p1338
sI1338
VCN(C)P(=NP(=NC(C)(C)C)(N=P(N(C)C)(N(C)C)N(C)C)N=P(N(C)C)(N(C)C)N(C)C)(N(C)C)N(C)C
p1339
sI1339
V[H][C@](O)(C(=O)[O-])[C@@]([H])(O)C(=O)[O-].[K+].[Na+]
p1340
sI1340
VCC(C)(C)O[AlH4-](OC(C)(C)C)OC(C)(C)C.[Li+]
p1341
sI1341
VO=S(OS(=O)C(F)(F)F)C(F)(F)F
p1342
sI1342
VCCN(CC)CC.[H]F
p1343
sI1343
VO=C([O-])C1=CC=CC=C1C(=O)O[O-].[Mg+2]
p1344
sI1344
V[H][C@]1([C@@H](OC2=NN=C(O[C@@H](C3=CC=NC4=C3C=C(OC)C=C4)[C@@]3([H])C[C@@H]4CCN3C[C@@H]4CC)C3=C2C=CC=C3)C2=CC=NC3=C2C=C(OC)C=C3)C[C@@H]2CCN1C[C@@H]2CC
p1345
sI1345
VO
p1346
sI1346
S'[K+].[O-][N+]([O-])=O'
p1347
sI1347
VCN1CCCN2CCCN=C12
p1348
sI1348
VCC(C)(C)C(=O)[O-].[Cs+]
p1349
sI1349
S'[H-].[H-].[Na+].COCCO[Al+]OCCOC'
p1350
sI1350
VCC1=CC=C(S(=O)(=O)O)C=C1.CN(C)C1=CC=NC=C1
p1351
sI1351
S'[F-].[Cs+]'
p1352
sI1352
VCCCC[N+](CCCC)(CCCC)CCCC.O=N[O-]
p1353
sI1353
V[O]N(=O)=O
p1354
sI1354
V[Se]=P1(C2=CC=CC=C2)[Se]P(=[Se])(C2=CC=CC=C2)[Se]1
p1355
sI1355
VC[Si](C)(C)N(S(=O)(=O)C(F)(F)F)S(=O)(=O)C(F)(F)F
p1356
sI1356
VCCCC[N+]1=CN(C)C=C1.[Cl-]
p1357
sI1357
V[2H][2H]
p1358
sI1358
VCN(C)C(=NN=N#N)N(C)C
p1359
sI1359
VOP(O)(O)=O.[Na+]
p1360
sI1360
VO=S(=O)([N-]S(=O)(=O)C(F)(F)F)C(F)(F)F.[Li+]
p1361
sI1361
S'F[B-](F)(F)F.C1CCC(CC1)P(C2CCCCC2)C3CCCCC3'
p1362
sI1362
VC[C@H]1[C@H](B(Cl)[C@@H]2C[C@@H]3C[C@H]([C@H]2C)C3(C)C)C[C@@H]2C[C@H]1C2(C)C
p1363
sI1363
VC1=CC2=C(N=C1)N(O[P+](N1CCCC1)(N1CCCC1)N1CCCC1)N=N2.FP(F)(F)(F)(F)F
p1364
sI1364
VBr[P+](N1CCCC1)(N1CCCC1)N1CCCC1.FP(F)(F)(F)(F)F
p1365
sI1365
S'Reaxys ID 6907951'
p1366
sI1366
VCCCCP(=CC#N)(CCCC)CCCC
p1367
sI1367
S'[Br-].[Br-].[Br-].C[N+](C)(C)Cc1ccccc1.C[N+](C)(C)Cc2ccccc2.C[N+](C)(C)Cc3ccccc3'
p1368
sI1368
VN#N=N[IH2]1OC(=O)C2=C1C=CC=C2
p1369
sI1369
VO=C([O-])[O-].[Ba+2]
p1370
sI1370
VO=[Cr](=O)(O)Cl.c1ccncc1
p1371
sI1371
VO=S(=O)([O-])C(F)(F)F.[Mg+2]
p1372
sI1372
VC1=CC=C2N=CC=CC2=C1.O=[Cr](=O)(O)F
p1373
sI1373
VCC1(C)C2=C(OC3=C1C=CC=C3P(C1=CC=CC=C1)C1=CC=CC=C1)C(P(C1=CC=CC=C1)C1=CC=CC=C1)=CC=C2
p1374
sI1374
VO=C1OCCN1P(=O)(OC1=CC=CC=C1)OC1=CC=CC=C1
p1375
sI1375
VCC(C)(C)N=P(N1CCCC1)(N1CCCC1)N1CCCC1
p1376
sI1376
VC1=CC=C(NC2=CC=CC=C2)C=C1.O=S(=O)(O)C(F)(F)F
p1377
sI1377
VCN(C)[C+](F)N(C)C.FP(F)(F)(F)(F)F
p1378
sI1378
VNC1=CC(S(=O)(=O)[O-])=C2C=CC3=C(S(=O)(=O)[O-])C=C(S(=O)(=O)[O-])C4=C3C2=C1C=C4.[Na+]
p1379
sI1379
V[AlH6]
p1380
sI1380
VCC1=CC(C)=C(N2[CH+]N(C3=C(C)C=C(C)C=C3C)CC2)C(C)=C1.[Cl-]
p1381
sI1381
V[H][C@]12C[C@H](B(Cl)[C@H]3C[C@@]4([H])C[C@@]([H])([C@@H]3C)C4(C)C)[C@@H](C)[C@]([H])(C1)C2(C)C
p1382
sI1382
VCCN=P(N=P(N(C)C)(N(C)C)N(C)C)(N(C)C)N(C)C
p1383
sI1383
VCCOP(=O)(OCC)ON1N=NC2=C(C=CC=C2)C1=O
p1384
sI1384
VCC(C)(C1=N[C@H](C2=CC=CC=C2)CO1)C1=N[C@H](C2=CC=CC=C2)CO1
p1385
sI1385
V[H][C@]1([C@@H](OC2=C3C(=O)C4=C(C=CC=C4)C(=O)C3=C(O[C@@H](C3=CC=NC4=C3C=C(OC)C=C4)[C@@]3([H])C[C@@H]4CCN3C[C@@H]4CC)C=C2)C2=CC=NC3=C2C=C(OC)C=C3)C[C@@H]2CCN1C[C@@H]2CC
p1386
sI1386
VCC1(C)OB(B2OC(C)(C)C(C)(C)O2)OC1(C)C
p1387
sI1387
VC1=CC=C(P(C2=CC=CC=C2)C2=CC=CC=C2OC2=CC=CC=C2P(C2=CC=CC=C2)C2=CC=CC=C2)C=C1
p1388
sI1388
VCN(C)C(N1N=N(=O)C2=CC=CC=C21)=[N+](C)C.FP(F)(F)(F)(F)F
p1389
sI1389
VCN(C)C(N1N=N(=O)C2=C1C=CC=N2)=[N+](C)C.FP(F)(F)(F)(F)F
p1390
sI1390
VCC(C)NC(C)C.O=C(O)C(F)(F)F
p1391
sI1391
VOC1=C(C2=C(O)C(Br)=CC3=C2C=CC=C3)C2=C(C=CC=C2)C=C1Br
p1392
sI1392
VO=N(=O)[O-].[Tl+3]
p1393
sI1393
VC1=CC=C(C2=NC=CC=C2)N=C1.O=[Cr](=O)(O)Cl
p1394
sI1394
VC1=CC=C([C+](C2=CC=CC=C2)C2=CC=CC=C2)C=C1.FC1=C(F)C(F)=C([B-](C2=C(F)C(F)=C(F)C(F)=C2F)(C2=C(F)C(F)=C(F)C(F)=C2F)C2=C(F)C(F)=C(F)C(F)=C2F)C(F)=C1F
p1395
sI1395
VO=C([O-])[O-].[Ca+2]
p1396
sI1396
S'CCCC[n+]1ccn(C)c1.F[B-](F)(F)F'
p1397
sI1397
VCCCC[N+]1=CN(C)C=C1.FP(F)(F)(F)(F)F
p1398
sI1398
VCOC1=NC(OC)=NC([N+]2(C)CCOCC2)=N1.[Cl-]
p1399
sI1399
VC1=CC=C(C[N+]23CCN(CC2)CC3)C=C1.O=I(=O)(=O)[O-]
p1400
sI1400
S'[K+].[I-]'
p1401
sI1401
S'[Na+].[I-]'
p1402
sI1402
S'[Na+].[Br-]'
p1403
sI1403
S'[Li+].[Cl-]'
p1404
sI1404
S'[Na+].[Cl-]'
p1405
sI1405
S'[Cl-].[Cl-].[Ca++]'
p1406
sI1406
VReaxys Name tin(ll) chloride
p1407
sI1407
S'[K+].[Br-]'
p1408
sI1408
S'[OH-].[K+]'
p1409
sI1409
S'[Li+].[Br-]'
p1410
sI1410
S'Reaxys ID 8128146'
p1411
sI1411
S'[OH-].[Na+]'
p1412
sI1412
S'[Mg++].[I-].[I-]'
p1413
sI1413
S'Reaxys ID 8128158'
p1414
sI1414
S'[Mg++].[Br-].[Br-]'
p1415
sI1415
S'[Mg++].[Cl-].[Cl-]'
p1416
sI1416
S'Reaxys ID 8128172'
p1417
sI1417
S'[OH-].[OH-].[Ba++]'
p1418
sI1418
S'[OH-].[OH-].[Ca++]'
p1419
sI1419
VReaxys Name barium(II) oxide
p1420
sI1420
S'CC(C)(CO[P](O)(=O)O[P](O)(=O)OC[C@H]1O[C@H]([C@H](O)[C@@H]1O[P](O)(O)=O)n2cnc3c(N)ncnc23)[C@@H](O)C(=O)NCCC(=O)NCC[S+]=O'
p1421
sI1421
VC1=CCCC=CCC1
p1422
sI1422
S'[I-].[Cs+]'
p1423
sI1423
S'[Li+].[I-]'
p1424
sI1424
S'BB'
p1425
sI1425
S'[Li+].O.[OH-]'
p1426
sI1426
VC[Si](C)(C)[N-][Si](C)(C)C.[Li+]
p1427
sI1427
VN#N=O
p1428
sI1428
VO=S([O-])[O-].[Na+]
p1429
sI1429
VC=C[C@H]1CN2CC[C@H]1C[C@H]2[C@@H](N)c1ccnc2ccc(OC)cc12
p1430
sI1430
VReaxys Name bovine serum albumin
p1431
sI1431
S'N[C@H]1[C@H](O)O[C@H](CO)C(O[C@@H]2O[C@H](CO)C(O[C@@H]3O[C@H](CO)[C@@H](O)[C@H](O)[C@H]3N)[C@H](O)[C@H]2N)[C@@H]1O'
p1432
sI1432
VReaxys Name adenosine deaminase
p1433
sI1433
VReaxys Name paraffin oil
p1434
sI1434
VReaxys Name horseradish peroxidase
p1435
sI1435
VReaxys Name mineral oil
p1436
sI1436
VReaxys Name ?-chymotrypsin
p1437
sI1437
VReaxys Name ?-glucosidase
p1438
sI1438
S'Cc1ccccc1C'
p1439
sI1439
S'CC(C)(C)CC(C)(C)c1ccc(OCCO)cc1'
p1440
sI1440
S'O.O=[Al]O[Al]=O.O=[Si]=O.O=[Si]=O.O=[Si]=O.O=[Si]=O'
p1441
sI1441
VCOCCN(CCOC)S(F)(F)F
p1442
sI1442
VCC(=O)O[BH-](OC(C)=O)OC(C)=O.C[N+](C)(C)C
p1443
sI1443
S'Reaxys ID 8241478'
p1444
sI1444
VCC(C)(C)P(C1=CC=CC=C1C1=CC=CC=C1)C(C)(C)C
p1445
sI1445
S'C[NH+]1C=CN=C1.F[B-](F)(F)F'
p1446
sI1446
VF[B-](F)(F)F.O[N+]12CC[N+](F)(CC1)CC2
p1447
sI1447
VReaxys Name papain
p1448
sI1448
VReaxys Name Petroleum ether
p1449
sI1449
VCC(C)(C)[O-].[Na+]
p1450
sI1450
VCC(C)C1=CC=CC(C(C)C)=C1N1[C]N(C2=C(C(C)C)C=CC=C2C(C)C)C=C1
p1451
sI1451
VCC(C)C1=CC=CC(C(C)C)=C1N1[C]N(C2=C(C(C)C)C=CC=C2C(C)C)CC1
p1452
sI1452
VC1=CC=C(C2=C(P(C3CCCCC3)C3CCCCC3)C=CC=C2)C=C1
p1453
sI1453
VCC1=CC=CC=C1C1=C(P(C2CCCCC2)C2CCCCC2)C=CC=C1
p1454
sI1454
VCC(C)C1=CC=CC(C(C)C)=C1N1C=C[N+](C2=C(C(C)C)C=CC=C2C(C)C)=C1.[Cl-]
p1455
sI1455
V[SiH4]
p1456
sI1456
VCB1OC(C2=CC=CC=C2)(C2=CC=CC=C2)[C@@H]2CCCN12
p1457
sI1457
VCC(C)(C)[O-].[Li+]
p1458
sI1458
VC[C@H](C1=CC=CC=C1)N([C@H](C)C1=CC=CC=C1)P1OC2=CC=C3C=CC=CC3=C2C2=C3C=CC=CC3=CC=C2O1
p1459
sI1459
VN#C[Fe](C#N)(C#N)(C#N)(C#N)C#N.[K+]
p1460
sI1460
VReaxys Name bis(sym-collidine)iodine(I) hexafluorophosphate
p1461
sI1461
VReaxys Name cellulase
p1462
sI1462
VCN(C)C1=C(C2=CC=CC=C2P(C2CCCCC2)C2CCCCC2)C=CC=C1
p1463
sI1463
VCCCC[N+]1=CN(C)C=C1.O=S(=O)([N-]S(=O)(=O)C(F)(F)F)C(F)(F)F
p1464
sI1464
VCC(C)(C)Br
p1465
sI1465
V[Na+].[S-][S-]
p1466
sI1466
VCC(C)CN1CCN2CCN(CC(C)C)P1N(CC(C)C)CC2
p1467
sI1467
VO=S(=O)([N-]S(=O)(=O)C(F)(F)F)C(F)(F)F.[Ag+]
p1468
sI1468
VNN.O=S(=O)(O)O
p1469
sI1469
VC[P+](C)(C)CC#N.[I-]
p1470
sI1470
S'CCCC[n+]1ccccc1.F[B-](F)(F)F'
p1471
sI1471
VCCCCN1C=C[N+](C)=C1.O=S(=O)([O-])C(F)(F)F
p1472
sI1472
VReaxys Name tri tert-butylphosphoniumtetrafluoroborate
p1473
sI1473
VC1=CC=C(P(C[C@H]2C[C@@H](CP(C3=CC=CC=C3)C3=CC=CC=C3)[C@@H](CP(C3=CC=CC=C3)C3=CC=CC=C3)[C@H]2CP(C2=CC=CC=C2)C2=CC=CC=C2)C2=CC=CC=C2)C=C1
p1474
sI1474
VCCCCCN1C=C[N+](C)=C1.[Br-]
p1475
sI1475
VCN(C)C1=CC=CC=C1.FC1=C(F)C(F)=C([B-](C2=C(F)C(F)=C(F)C(F)=C2F)(C2=C(F)C(F)=C(F)C(F)=C2F)C2=C(F)C(F)=C(F)C(F)=C2F)C(F)=C1F.[H+]
p1476
sI1476
VReaxys Name alkaline phosphatase
p1477
sI1477
VC1=CC=C(C[P+](C2=CC=CC=C2)(C2=CC=CC=C2)C2=CC=CC=C2)C=C1.O=S(=O)([O-])OO
p1478
sI1478
VNN.O=CO
p1479
sI1479
VCB1OC(C2=CC=CC=C2)(C2=CC=CC=C2)[C@H]2CCCN12
p1480
sI1480
VO=C(N=NC(=O)N1CCCCC1)N1CCCCC1
p1481
sI1481
VF
p1482
sI1482
VO=S(=O)([N-]S(=O)(=O)C(F)(F)F)C(F)(F)F.[Mg+2]
p1483
sI1483
VReaxys Name Candida rugosa lipase
p1484
sI1484
VCC(C)C1=CC(C(C)C)=C(C2=CC=CC=C2P(C(C)(C)C)C(C)(C)C)C(C(C)C)=C1
p1485
sI1485
VCC(=O)[O-].CCCC[N+]1=CN(C)C=C1
p1486
sI1486
VCC(C)C1=CC(C(C)C)=C(C2=CC=CC=C2P(C2CCCCC2)C2CCCCC2)C(C(C)C)=C1
p1487
sI1487
VOC(CS)C(O)CS
p1488
sI1488
V[H][C@@]12CCN3C[C@]1(CC)O[C@@]([H])(C1=C4C=C(O)C=CC4=NC=C1)[C@@]3([H])C2
p1489
sI1489
VO=C([O-])[O-].[Mg+2]
p1490
sI1490
S'Reaxys ID 9675160'
p1491
sI1491
VO=C([O-])C(F)(F)F.[Tl+3]
p1492
sI1492
VCCCCN1C=C[N+](C)=C1.Cl[In-](Cl)(Cl)Cl
p1493
sI1493
VC1=CC=C(CN2C=C(CN(CC3=CN(CC4=CC=CC=C4)N=N3)CC3=CN(CC4=CC=CC=C4)N=N3)N=N2)C=C1
p1494
sI1494
VCC(C)OC1=CC=CC(OC(C)C)=C1C1=C(P(C2CCCCC2)C2CCCCC2)C=CC=C1
p1495
sI1495
S'C=O'
p1496
sI1496
VCCCC[N+]1=CN(C)C=C1.O=S(=O)([O-])O
p1497
sI1497
V[AlH3+3].[O-]C1=C(C2=CC=CC=C2)C=CC=C1C1=CC=CC=C1
p1498
sI1498
VCN1C=C[N+](CCCCS(=O)(=O)O)=C1.O=S(=O)([O-])C(F)(F)F
p1499
sI1499
VC[Si](C)(C)OC(C1=CC=CC=C1)(C1=CC=CC=C1)[C@@H]1CCCN1
p1500
sI1500
VO=C([O-])[O-].[Rb+]
p1501
sI1501
V[H][C@@]12CCN(C[C@@H]1C=C)[C@]([H])([C@@H](N)C1=CC=NC3=CC=C(OC)C=C31)C2
p1502
sI1502
VO=S(=O)([O-])C(F)(F)F.[Ga+3]
p1503
sI1503
VF[P-](F)(F)(F)(F)F.[K+]
p1504
sI1504
VCOc1cccc(OC)c1-c1ccccc1P(C1CCCCC1)C1CCCCC1
p1505
sI1505
S'Cc1cc(C)c(c(C)c1)[n+]2cn3CCCc3n2.F[B-](F)(F)F'
p1506
sI1506
V[H][C@@]12CCN(C[C@@H]1C=C)[C@]([H])([C@@H](NC(=S)NC1=CC(C(F)(F)F)=CC(C(F)(F)F)=C1)C1=CC=NC3=CC=C(OC)C=C31)C2
p1507
sI1507
V[H][C@@]12CCN(C[C@@H]1C=C)[C@@]([H])([C@H](NC(=S)NC1=CC(C(F)(F)F)=CC(C(F)(F)F)=C1)C1=CC=NC3=CC=C(OC)C=C31)C2
p1508
sI1508
VReaxys Name 2-pentafluorophenyl-6,17dihydro-5H-pyrrolo[2,1-c][1,2,4]triazol-2-ium tetrafluoroborate
p1509
sI1509
VCCCCN1C=C[N+](C)=C1.[H][O-]
p1510
sI1510
VO=S(=O)([O-])C(F)(F)F.[In+3]
p1511
sI1511
VCCN(CC)CC.F
p1512
sI1512
VO=S(=O)([O-])C(F)(F)F.[Bi+3]
p1513
sI1513
VCC(C)(C)[C@H]1CN2C[C@H](C(C)(C)C)NC2=N1
p1514
sI1514
VCC(C)(C)[Si](C)(C)OC(C1=CC=CC=C1)(C1=CC=CC=C1)[C@@H]1CCCN1
p1515
sI1515
S'Reaxys ID 10403280'
p1516
sI1516
VC[Si](C)(C)OC(C1=CC(C(F)(F)F)=CC(C(F)(F)F)=C1)(C1=CC(C(F)(F)F)=CC(C(F)(F)F)=C1)[C@@H]1CCCN1
p1517
sI1517
VCC(C)C1=CC(C(C)C)=C(C2=CC3=CC=CC=C3C3=C2OP(=O)(O)OC2=C(C4=C(C(C)C)C=C(C(C)C)C=C4C(C)C)C=C4C=CC=CC4=C23)C(C(C)C)=C1
p1518
sI1518
VO=P1(O)OC2=C(C3=C(C=CC=C3)C=C2[Si](C2=CC=CC=C2)(C2=CC=CC=C2)C2=CC=CC=C2)C2=C(O1)C([Si](C1=CC=CC=C1)(C1=CC=CC=C1)C1=CC=CC=C1)=CC1=C2C=CC=C1
p1519
sI1519
VNC(=O)C1=CN([C@@H]2O[C@H](COP(=O)([O-])OP(=O)([O-])OC[C@H]3O[C@@H](N4C=NC5=C4N=CN=C5N)[C@H](OP(=O)([O-])[O-])[C@@H]3O)[C@@H](O)[C@H]2O)C=CC1.[Na+]
p1520
sI1520
VCOC1=C(C(C)(C)C)C=C(P(C2=CC(C(C)(C)C)=C(OC)C(C(C)(C)C)=C2)C2=CC=C3OCOC3=C2C2=C3OCOC3=CC=C2P(C2=CC(C(C)(C)C)=C(OC)C(C(C)(C)C)=C2)C2=CC(C(C)(C)C)=C(OC)C(C(C)(C)C)=C2)C=C1C(C)(C)C
p1521
sI1521
V[H][B-](C(C)=O)(C(C)=O)C(C)=O.[Na+]
p1522
sI1522
S'F[B-](F)(F)F.C1Cn2c[n+](nc2C1)c3ccccc3'
p1523
sI1523
V[Cl-].[H][C@]12C3=CC=CC=C3C[C@@]1([H])OCC1=N[N+](C3=C(C)C=C(C)C=C3C)=CN12
p1524
sI1524
VCC1=CC=C(S(=O)(=O)[O-])C=C1.O=S(=O)(O)CCC[P+](C1=CC=CC=C1)(C1=CC=CC=C1)C1=CC=CC=C1
p1525
sI1525
VCC1=CC(C)=C(N2CCN(C3=C(C)C=C(C)C=C3C)C2[Ru](Cl)(Cl)(=CC2=CC=CC=C2)P(C2CCCCC2)(C2CCCCC2)C2CCCCC2)C(C)=C1
p1526
sI1526
VN.O=N(=O)O
p1527
sI1527
VCl[Ru](Cl)(=CC1=CC=CC=C1)(P(C1CCCCC1)(C1CCCCC1)C1CCCCC1)P(C1CCCCC1)(C1CCCCC1)C1CCCCC1
p1528
sI1528
VCN1C=CN=C1.O=S(=O)(O)O
p1529
sI1529
VO=Br(=O)[O-].[K+]
p1530
sI1530
VO=S(=O)([O-])C(F)(F)F.[Fe+2]
p1531
sI1531
S'[H-].[Al+3].[H-].[H-]'
p1532
sI1532
S'[Cu]Br'
p1533
sI1533
VN#C[S-].[NH4+]
p1534
sI1534
VCC(=O)[O-].[NH4+]
p1535
sI1535
VO=C([O-])[O-].[NH4+]
p1536
sI1536
S'OCCO'
p1537
sI1537
VReaxys Name Fuller's Earth
p1538
sI1538
VReaxys Name porcine liver esterase
p1539
sI1539
VN[C@@H]1CCCC[C@H]1NC(=S)NC1=CC(C(F)(F)F)=CC(C(F)(F)F)=C1
p1540
sI1540
V[C-]#N.[K+]
p1541
sI1541
VReaxys Name Candida antarctica lipase B
p1542
sI1542
V[C-]#N.[Na+]
p1543
sI1543
VO=C1O[IH2](C(F)(F)F)C2=C1C=CC=C2
p1544
sI1544
VCC(C)(C)[C@H]1COC(C2=C(P(C3=CC=C(C(F)(F)F)C=C3)C3=CC=C(C(F)(F)F)C=C3)C=CC(C(F)(F)F)=C2)=N1
p1545
sI1545
VO=C(N[C@H]1CCCC[C@@H]1NC(=O)C1=C(P(C2=CC=CC=C2)C2=CC=CC=C2)C=CC=C1)C1=CC=CC=C1P(C1=CC=CC=C1)C1=CC=CC=C1
p1546
sI1546
VCCOCC.F[B-](F)(F)F.[H+]
p1547
sI1547
VO=P1(O)OC2=C(C3=C(C=CC=C3)C=C2C2=C3C=CC=CC3=CC3=C2C=CC=C3)C2=C(O1)C(C1=C3C=CC=CC3=CC3=C1C=CC=C3)=CC1=C2C=CC=C1
p1548
sI1548
VCOC1=C(C(C)(C)C)C=C(P(C2=CC(C(C)(C)C)=C(OC)C(C(C)(C)C)=C2)C2=C(C3=C(P(C4=CC(C(C)(C)C)=C(OC)C(C(C)(C)C)=C4)C4=CC(C(C)(C)C)=C(OC)C(C(C)(C)C)=C4)C=CC4=C3OCO4)C3=C(C=C2)OCO3)C=C1C(C)(C)C
p1549
sI1549
VNCCO.O=CO
p1550
sI1550
VCOCCOC(=O)N=NC(=O)OCCOC
p1551
sI1551
V[2H][B-](CC)(CC)CC.[Li+]
p1552
sI1552
VCC(C)C1=CC=CC(C(C)C)=C1NC(=O)[C@@H]1CCCC[N@@+]1([O-])CCC[N@+]1([O-])CCCC[C@H]1C(=O)NC1=C(C(C)C)C=CC=C1C(C)C
p1553
sI1553
V[H]B([H])B([H])[H]
p1554
sI1554
VReaxys Name Candida antarctica lipase
p1555
sI1555
VReaxys Name citrate buffer
p1556
sI1556
S'Reaxys ID 11314887'
p1557
sI1557
VReaxys Name PEG-400
p1558
sI1558
VReaxys Name polyethylene glycol-400
p1559
sI1559
VO=[Cr](=O)([O-])O[Cr](=O)(=O)[O-].[K+]
p1560
sI1560
S'[Cl-].[Cl-].[Cl-].[Ga+3]'
p1561
sI1561
S'[Cl-].[Cl-].[Cl-].[In+3]'
p1562
sI1562
VO=C([O-])[O-].[Cu+2]
p1563
sI1563
VCl[Pt](Cl)(Cl)(Cl)(Cl)Cl.[H+]
p1564
sI1564
VCC(S)S
p1565
sI1565
S'O=BOB=O'
p1566
sI1566
S'[F-].[F-].[Ca++]'
p1567
sI1567
VReaxys Name NaSH
p1568
sI1568
S'[Na+].[Na+].[SH-]'
p1569
sI1569
VO=S(=O)([O-])[O-].[AlH3+3].[K+]
p1570
sI1570
S'O=[Al]O[Al]=O'
p1571
sI1571
S'[Al+3].[Cl-].[Cl-].[Cl-]'
p1572
sI1572
S'Cl[Bi](Cl)Cl'
p1573
sI1573
S'[Cl-].[Cl-].[Cl-].[Cr+3]'
p1574
sI1574
VReaxys Name Catalyst M-Chromium oxide
p1575
sI1575
VO=S([O-])OS(=O)[O-].[K+]
p1576
sI1576
VO=C([O-])[O-].OO.[Na+]
p1577
sI1577
V[GaH3]
p1578
sI1578
S'S1SSSSSSS1'
p1579
sI1579
VReaxys Name argentic oxide
p1580
sI1580
S'[NH4+].[I-]'
p1581
sI1581
VO=P(=O)OP(=O)=O
p1582
sI1582
VN.O=P(O)(O)O
p1583
sI1583
VReaxys Name 1,1'-bis-(diphenylphosphino)ferrocene
p1584
sI1584
VO=S([O-])S(=O)(=O)[O-].[Na+]
p1585
sI1585
VReaxys Name [iridium(III)(2-phenylpyridine)3]
p1586
sI1586
VO=BO[O-].[Na+]
p1587
sI1587
VO[B-]1(O)OO[B-](O)(O)OO1.[Na+]
p1588
sI1588
V[NaH].[NaH].[SeH2]
p1589
sI1589
S'[K+].O=O'
p1590
sI1590
V[Na+].[O-]B1OB2OB([O-])OB(O1)O2
p1591
sI1591
S'[Br-].[Ag+]'
p1592
sI1592
VCC1(C)CCCC(C)(C)N1[O]
p1593
sI1593
VO=S(=O)([O-])O.O=S(=O)([O-])OO.O=S(=O)([O-])[O-].[K+]
p1594
sI1594
S'[NH4+].[NH4+].[NH4+].[NH4+].[NH4+].[NH4+].O.O.O.O.[O--].[O--].[O--].[O--].[O--].[O--].[O--].[O--].[O--].[O--].[O--].[O--].[O--].[O--].[O--].[O--].[O--].[O--].[O--].[O--].[O--].[O--].[O--].[O--].[Mo].[Mo].[Mo].[Mo].[Mo].[Mo].[Mo]'
p1595
sI1595
S'O.O.O.O.O.O.O.O.O.O.O.O.O.O.O.O.O.O.O.O.O.O.O.O.O.O.O.O.O.O.O.O.O.O.O.O.O.O.O.O.P.[W].[W].[W].[W].[W].[W].[W].[W].[W].[W].[W].[W]'
p1596
sI1596
V[Na+].[O-]B([O-])[O-]
p1597
sI1597
VO=S(=O)([O-])[O-].[Ca+2]
p1598
sI1598
VO=[N+]([O-])[O-].[Bi+3]
p1599
sI1599
VCCCCCCCCCCCC(=O)[O-].CCCC[SnH4+2]CCCC
p1600
sI1600
VO=I(=O)[O-].[K+]
p1601
sI1601
VO=S(=O)([O-])S(=O)(=O)[O-].[Na+]
p1602
sI1602
S'O.O.O.O.O.O.O.O.O.O.O.O.[Na+].[Na+].[Na+].[O-][P]([O-])([O-])=O'
p1603
sI1603
VReaxys Name (phthalocyaninato)iron(II)
p1604
sI1604
VO=Cl(=O)[O-].[Na+]
p1605
sI1605
S'[NH4+].[F-]'
p1606
sI1606
VN.S
p1607
sI1607
VN.O=[V](=O)O
p1608
sI1608
V[BiH3]
p1609
sI1609
VN.O=S(=O)(O)O
p1610
sI1610
S'[F-].[K+]'
p1611
sI1611
V[InH3]
p1612
sI1612
VReaxys Name (n-Bu)CCTMS
p1613
sI1613
VP
p1614
sI1614
VN.O=P(O)(O)O
p1615
sI1615
V[PbH4]
p1616
sI1616
V[Ca+2].[OH-]
p1617
sI1617
V[Ba+2].[OH-]
p1618
sI1618
V[Cs+].[OH-]
p1619
sI1619
V[K+].[OH-]
p1620
sI1620
V[Li+].[OH-]
p1621
sI1621
V[NH4+].[OH-]
p1622
sI1622
V[Na+].[OH-]
p1623
sI1623
V[SeH2]
p1624
sI1624
V[SnH4]
p1625
sI1625
V[TeH2]
p1626
sI1626
V[Na+].[O-]Cl
p1627
sI1627
VO=Cl[O-].[Na+]
p1628
sI1628
VN.O=S(=O)(O)OOS(=O)(=O)O
p1629
sI1629
VO=S([O-])[O-].[K+]
p1630
sI1630
VO=Br(=O)[O-].[Na+]
p1631
sI1631
VO=[N+]([O-])[O-].[Na+]
p1632
sI1632
V[BH4-].[Na+]
p1633
sI1633
VO=[Si]([O-])[O-].[Mg+2]
p1634
sI1634
VO=S(=O)([O-])[O-].[AlH3+3]
p1635
sI1635
VO=S(=O)([O-])[O-].[NH4+]
p1636
sI1636
VO=S(=O)([O-])[O-].[K+]
p1637
sI1637
VO=P([O-])([O-])[O-].[AlH3+3]
p1638
sI1638
VO=[W](=O)([O-])[O-].[Na+]
p1639
sI1639
VO=P([O-])([O-])[O-].[K+]
p1640
sI1640
VO=[Mn](=O)(=O)[O-].[K+]
p1641
sI1641
V[Na+].[O-][I+3]([O-])([O-])[O-]
p1642
sI1642
VO=S(=O)([O-])O.[Na+]
p1643
sI1643
VO=S(=O)([O-])O.[K+]
p1644
sI1644
VO=S([O-])OS(=O)[O-].[Na+]
p1645
sI1645
VO=P([O-])([O-])O.[K+]
p1646
sI1646
VO=P([O-])([O-])O.[Na+]
p1647
sI1647
VO=S(=O)([O-])OO.[K+]
p1648
sI1648
VO=P([O-])(O)O.[K+]
p1649
sI1649
VO=P([O-])(O)O.[Na+]
p1650
sI1650
VO=S(=O)([O-])OOS(=O)(=O)[O-].[NH4+]
p1651
sI1651
VO=S(=O)([O-])OOS(=O)(=O)[O-].[Na+]
p1652
sI1652
VO=S(=O)([O-])OOS(=O)(=O)[O-].[K+]
p1653
sI1653
S'[K+].OO[S]([O-])=O'
p1654
sI1654
S'[K+].OO[S]([O-])=O'
p1655
sI1655
VReaxys Name sodium amalgam
p1656
sI1656
VReaxys Name AD-mix-?
p1657
sI1657
VReaxys Name Lindlar's catalyst
p1658
sI1658
VReaxys Name Lindlar's catalyst
p1659
sI1659
VReaxys Name Zn?Hg amalgam
p1660
sI1660
VReaxys Name aluminum amalgam
p1661
sI1661
VReaxys Name sodium amalgam
p1662
sI1662
VReaxys Name potassium fluoride on basic alumina
p1663
sI1663
VReaxys Name silica-gel-supported sulfuric acid
p1664
sI1664
S'Reaxys ID 11403869'
p1665
sI1665
S'Reaxys ID 11405916'
p1666
sI1666
VReaxys Name isopropylmagnesium chloride lithium chloride complex
p1667
sI1667
V[H][S-].[Na+]
p1668
sI1668
V[AlH7-].[Li+]
p1669
sI1669
VO=[Cr](=O)(O)O[Cr](=O)(=O)O.c1ccncc1
p1670
sI1670
VReaxys Name Jone's reagent
p1671
sI1671
S'[Al+3].[I-].[I-].[I-]'
p1672
sI1672
S'[OH-].[O--].[P-3].[Mo]'
p1673
sI1673
V[BH4-].[Li+]
p1674
sI1674
VO=[PH2][O-].[Na+]
p1675
sI1675
VO=S(=O)(O)O[O-].[K+]
p1676
sI1676
S'F[B-](F)(F)F.[H+]'
p1677
sI1677
S'[Li+].F[B-](F)(F)F'
p1678
sI1678
VF[B-](F)(F)F.[Na+]
p1679
sI1679
VO=S(=O)([O-])C(F)(F)F.[AlH3+3]
p1680
sI1680
VO=S(=O)([O-])C(F)(F)F.[Sn+2]
p1681
sI1681
VReaxys Name Oxonetrade;
p1682
sI1682
S'[OH-].[Na+]'
p1683
sI1683
VReaxys Name 9-borabicyclo[3$dot$3$dot$1]nonane dimer
p1684
sI1684
VO=S(Br)Br
p1685
sI1685
VO=N[O-].[Ag+]
p1686
sI1686
V[Ca+2].[O-]Cl
p1687
sI1687
VCC(C)C1=CC(C(C)C)=C(C2=CC3=C(C=CC=C3)C3=C2OP(=O)(O)OC2=C3C3=C(C=CC=C3)C=C2C2=C(C(C)C)C=C(C(C)C)C=C2C(C)C)C(C(C)C)=C1
p1688
sI1688
S'Reaxys ID 11970704'
p1689
sI1689
S'Reaxys ID 12028193'
p1690
sI1690
VReaxys Name hexaammonium heptamolybdate tetrahydrate
p1691
sI1691
S'[B].N'
p1692
sI1692
VO=P([O-])(O)O.[AlH3+3]
p1693
sI1693
S'Reaxys ID 12591086'
p1694
sI1694
S'C[Al](C)C.C[Al](C)C.C1CN2CCN1CC2'
p1695
sI1695
VReaxys Name Alkaline
p1696
sI1696
VNCl
p1697
sI1697
S'[Li+].[Cl-].[Cl-].C[Mg]N1CCCC(C)C1(C)C'
p1698
sI1698
VReaxys Name baker's yeast
p1699
sI1699
S'[Cl-].[Cl-].CCNC1=NCCC[N+]1(C)C.CCN=C=NCCCN(C)C.[H+]'
p1700
sI1700
VReaxys Name jones reagent
p1701
sI1701
VReaxys Name jones' reagent
p1702
sI1702
S'O=[Si]=O'
p1703
sI1703
S'Reaxys ID 13133721'
p1704
sI1704
VReaxys Name ligroine
p1705
sI1705
S'[Li+].[Br-]'
p1706
sI1706
VReaxys Name molecular sieve
p1707
sI1707
S'Reaxys ID 13134145'
p1708
sI1708
S'Reaxys ID 13134178'
p1709
sI1709
S'[K+].[K+].[O-]s1([O-])oooo1'
p1710
sI1710
S'[O-][O+]=O'
p1711
sI1711
VReaxys Name phosphate buffer
p1712
sI1712
VReaxys Name pig liver esterase
p1713
sI1713
S'O.O.O.CCN1C=C(C(O)=O)C(=O)c2cnc(nc12)N3CCNCC3'
p1714
sI1714
S'[F-].[K+]'
p1715
sI1715
S'[K+].[I-]'
p1716
sI1716
S'[H-].[Na+]'
p1717
sI1717
S'[Na+].[I-]'
p1718
sI1718
S'O.O.[Cl-].[Cl-].[Sn++]'
p1719
sI1719
VO=[Cr](=O)([O-])O[Cr](=O)(=O)[O-].[Na+]
p1720
sI1720
VReaxys Name 1,1'-bis(di-tertbutylphosphino)ferrocene
p1721
sI1721
S'F[Si--](F)(F)(F)(F)F.[H+].[H+]'
p1722
sI1722
V[3H][3H]
p1723
sI1723
VCC(=O)O[B-](OC(C)=O)OC(C)=O.[Na+]
p1724
sI1724
S'[H-].[Ca++].[H-]'
p1725
sI1725
S'[H+].[F-].[F-].[K+]'
p1726
sI1726
VO=NOS(=O)(=O)O
p1727
sI1727
S'[Al+3].[Br-].[Br-].[Br-]'
p1728
sI1728
VReaxys Name NaClO
p1729
sI1729
VReaxys Name boron dimethyl-trifluoro sulphide
p1730
sI1730
VCCC[N+](CCC)(CCC)CCC.O=[Ru-](=O)(=O)=O
p1731
sI1731
VCCP(=O)(C#N)CC
p1732
sI1732
VCCOC(=O)C(C#N)=NOC(N(C)C)=[N+](C)C.F[B-](F)(F)F
p1733
sI1733
VCCCC[N+](CCCC)(CCCC)CCCC.O=[Ru](=O)(=O)[O-]
p1734
sI1734
VCN(C)C(ON1N=NC2=NC=CC=C21)=[N+](C)C.FP(F)(F)(F)(F)F
p1735
sI1735
S'Reaxys ID 13173447'
p1736
sI1736
VReaxys Name TPCD
p1737
sI1737
VO=S(=O)(O)O[O-].O=S(=O)([O-])O.O=S(=O)([O-])[O-].[K+]
p1738
sI1738
VO=S(=O)(O)OCl
p1739
sI1739
VF[Xe]F
p1740
sI1740
VReaxys Name N,N-di-methylaminopyridine
p1741
sI1741
VO=C(O)C1=CC(OOCl)=CC=C1
p1742
sI1742
V[Br-].[PH3+3]
p1743
sI1743
V[Cl-].[PH3+3]
p1744
sI1744
VO=C([O-])[O-].[H+].[Na+]
p1745
sI1745
V[KH].[NaH]
p1746
sI1746
VO=S(=O)(F)F
p1747
sI1747
V[Fe+2].[OH-]
p1748
sI1748
V[F-].[NH4+]
p1749
sI1749
VO=N[O-].[K+]
p1750
sI1750
V[Na+].[O-]Br
p1751
sI1751
V[BH4-].[Ca+2]
p1752
sI1752
V[Hg].[NaH]
p1753
sI1753
VNP(=O)(Cl)N(N1CCOC1=O)N1CCOC1=O
p1754
sI1754
VReaxys Name zirconocene dichloride
p1755
sI1755
VNN.[H]Cl
p1756
sI1756
VCC(C)(C)N.F
p1757
sI1757
VS=P12SP3(=S)SP(=S)(S1)SP(=S)(S2)S3
p1758
sI1758
VNO.O=S(=O)(O)O
p1759
sI1759
VCl[Sn](Cl)(Cl)Cl.O
p1760
sI1760
V[Br-].[NH4+]
p1761
sI1761
VN.ON1N=NC2=CC=CC=C21
p1762
sI1762
VN#N=[N-].[Li+]
p1763
sI1763
V[Li+].[NH2-]
p1764
sI1764
V[K+].[O-]Cl
p1765
sI1765
VO=N(=O)[O-].[NH4+]
p1766
sI1766
S'[BH4-].[BH4-].[Zn++]'
p1767
sI1767
VO=N(=O)[O-].[Pb+2]
p1768
sI1768
V[BH4-].[K+]
p1769
sI1769
VO=Cl(=O)(=O)[O-].[Mg+2]
p1770
sI1770
VO=C([O-])O.[Cs+]
p1771
sI1771
V[2H][Al]([2H])([2H])[2H].[Li+]
p1772
sI1772
VO=S(=O)([O-])O[O-].[K+]
p1773
sI1773
VO=[Mo](=O)([O-])[O-].[H][N+]([H])([H])[H]
p1774
sI1774
VC1=CC=NC=C1.O=[Cr](=O)(O)O[Cr](=O)(=O)O
p1775
sI1775
VCN1C=C[N+](C)=C1Cl.[Cl-]
p1776
sI1776
VCl[Pd](Cl)(Cl)Cl.[Li+]
p1777
sI1777
S'F[B-](F)(F)F.O=[N+]=O'
p1778
sI1778
VC1=CC=C(C2=CC=CC=C2)C=C1.C1=CC=C(OC2=CC=CC=C2)C=C1
p1779
sI1779
S'[Li+].O.[OH-]'
p1780
sI1780
VReaxys Name amberlyst-15
p1781
sI1781
S'[K+].[I-]'
p1782
sI1782
VReaxys Name NaBH(OAc)3
p1783
sI1783
VReaxys Name polymethylhydrosiloxane
p1784
sI1784
VReaxys Name polyphosphate ester
p1785
sI1785
VO=I(=O)(=O)[O-].[K+]
p1786
sI1786
VO=Cl(=O)[O-].[K+]
p1787
sI1787
VReaxys Name EDC monohydrochloride
p1788
sI1788
VN#CC(C1=CC=C(Cl)C=C1)C1=C(Cl)C=CC(N2N=CC(=O)NC2=O)=C1Cl
p1789
sI1789
VCC(=O)[O-].CCCC[SnH4+2]CCCC
p1790
sI1790
VO=S(=O)(O)OO
p1791
sI1791
V[AsH3+3].[Cl-]
p1792
sI1792
V[2H][B-]([2H])([2H])[2H].[Na+]
p1793
sI1793
VBBBBBBBBBB
p1794
sI1794
VO=I(=O)OI(=O)=O
p1795
sI1795
V[K+].[O-]Br
p1796
sI1796
VO=I(=O)[O-].[Na+]
p1797
sI1797
V[3H]O[3H]
p1798
sI1798
S'F[Br](F)F'
p1799
sI1799
VFN(F)N(F)F
p1800
sI1800
VC[O+](C)[B-](F)(F)F
p1801
sI1801
VCN(C)C=O.O=S(=O)=O
p1802
sI1802
S'Reaxys ID 13273590'
p1803
sI1803
S'O.[Na+].O[S]([O-])(=O)=O'
p1804
sI1804
V[OH-].[Tl+]
p1805
sI1805
VFNF
p1806
sI1806
VB.N
p1807
sI1807
S'[H-].[Na+]'
p1808
sI1808
S'C[Si](C)(C)O[PH](O)=O'
p1809
sI1809
S'C[C@@]1(CO)O[P](O)(=O)O[P](O)(=O)OC[C@H]1O'
p1810
sI1810
VReaxys Name PS-carbodiimide
p1811
sI1811
VReaxys Name swern reagent
p1812
sI1812
S'[Li+].[OH-]'
p1813
sI1813
VO=[Mn](=O)(=O)[O-].[Ba+2]
p1814
sI1814
S'O.[K+].[K+].[K+].[O-][P]([O-])([O-])=O'
p1815
sI1815
VO=Br[O-].[Na+]
p1816
sI1816
VO=C1CCC2(CCNCC2)NC2=CC=CC=C12
p1817
sI1817
VO=C1CCC(=O)N1S(=O)(=O)O
p1818
sI1818
VCCOC(=O)/C(C#N)=N\u005cOC(N(C)C)=[N+](C)C.F[B-](F)(F)F
p1819
sI1819
VReaxys Name borohydride exchange resin
p1820
sI1820
VReaxys Name polymer supported cyanoborohydride
p1821
sI1821
VReaxys Name sodium peroxide
p1822
sI1822
S'O=[Pb].O1O[Pb]O[Pb]O[Pb]1'
p1823
sI1823
S'Reaxys ID 14198158'
p1824
sI1824
VReaxys Name boron trifluoride-tetrahydrofuran complex
p1825
sI1825
S'[Br-].[Br-].[Br-].c1cc[nH+]cc1.c2cc[nH+]cc2.c3cc[nH+]cc3'
p1826
sI1826
V[NH4+].[S-2]
p1827
sI1827
VN#N=[N-].[K+]
p1828
sI1828
V[2H][O-].[Na+]
p1829
sI1829
S'[Br-].[Br-].[Br-].c1cc[nH+]cc1.c2cc[nH+]cc2.c3cc[nH+]cc3'
p1830
sI1830
S'Reaxys ID 14201907'
p1831
sI1831
VCl[Cu](Cl)(Cl)Cl.[Li+]
p1832
sI1832
S'[H+].[F-].[F-].[K+]'
p1833
sI1833
VCCCCC(CC)C(=O)[O-].[Sn+2]
p1834
sI1834
VO=C(O)C1=C(C(=O)O[O-])C=CC=C1.[Mg+2]
p1835
sI1835
VCCCC[SnH2+](CCCC)CCCC.N#N=[N-]
p1836
sI1836
S'[Fe].[CH]1[CH][CH][C]([CH]1)P(c2ccccc2)c3ccccc3.[CH]4[CH][CH][C]([CH]4)P(c5ccccc5)c6ccccc6'
p1837
sI1837
VReaxys Name dimethyltitanocene
p1838
sI1838
S'Reaxys ID 14227090'
p1839
sI1839
VReaxys Name acetic acid ester
p1840
sI1840
VReaxys Name Carbonate buffer
p1841
sI1841
S'[Na+].[C-]#N'
p1842
sI1842
VReaxys Name novozyme 435
p1843
sI1843
VReaxys Name porcine pancreatic lipase
p1844
sI1844
VReaxys Name Proton Sponge
p1845
sI1845
VReaxys Name PS-carbodiimide resin
p1846
sI1846
VReaxys Name Tris-HCl buffer
p1847
sI1847
VCC(C)C[AlH3+]CC(C)C.[HH2-]
p1848
sI1848
VO=S(=O)([O-])O.[N+]=O
p1849
sI1849
VO=C1OC(C(O)CO)C([O-])=C1O.[Na+]
p1850
sI1850
S'Reaxys ID 14253791'
p1851
sI1851
VN.[H]P([H])(=O)O
p1852
sI1852
S'F[Cl](=O)(=O)=O'
p1853
sI1853
VReaxys Name PS-Trisamine scavenger reagent
p1854
sI1854
S'O.O.O.O.O.O.[La+3].[O-][N+]([O-])=O.[O-][N+]([O-])=O.[O-][N+]([O-])=O'
p1855
sI1855
S'[Ga+3].[Br-].[Br-].[Br-]'
p1856
sI1856
VC1CCC2=NCCCN2CC1.CC(=O)O
p1857
sI1857
S'Reaxys ID 14282747'
p1858
sI1858
VIP(I)P(I)I
p1859
sI1859
S'Reaxys ID 14292158'
p1860
sI1860
VReaxys Name (p-cymene)ruthenium(II) chloride
p1861
sI1861
VFS(F)(F)(F)(F)Cl
p1862
sI1862
V[Li+].[O-]O
p1863
sI1863
VP12P3P1P23
p1864
sI1864
VReaxys Name triphenylphosphine on polystyrene
p1865
sI1865
S'F[K]'
p1866
sI1866
VReaxys Name Lipase PS
p1867
sI1867
VReaxys Name potassium phosphate buffer
p1868
sI1868
VReaxys Name PS-DIEA
p1869
sI1869
VReaxys Name soda lime
p1870
sI1870
VN[O-].[K+]
p1871
sI1871
VN.S
p1872
sI1872
VReaxys Name methyl lithium LiBr complex
p1873
sI1873
VReaxys Name sodium [125I]iodide
p1874
sI1874
VCC(C)(C)C1=CC=C(C2=CC=C(C(C)(C)C)C=C2)C=C1.[Li+]
p1875
sI1875
S'Reaxys ID 14355144'
p1876
sI1876
S'[BH4-].[Na+]'
p1877
sI1877
VFS(F)(F)(F)(F)Br
p1878
sI1878
VReaxys Name 7-methyl-1,5,7-triazabicyclo[4$dot$4$dot$0]dec-5-ene on polystyrene$dot$HL
p1879
sI1879
S'Reaxys ID 14374489'
p1880
sI1880
VO=[15N][O-].[Na+]
p1881
sI1881
S'Reaxys ID 14389845'
p1882
sI1882
VCCCC[N+](CCCC)(CCCC)CCCC.[18F-]
p1883
sI1883
S'[Br-].[Br-].[Br-].[In+3]'
p1884
sI1884
VCC[S+](N)CC.[F-]
p1885
sI1885
VReaxys Name (1,2,3,4,5-pentaphenylferrocen-1'-yl)-di-tert-butylphosphine
p1886
sI1886
S'[Na+].S'
p1887
sI1887
V[Na+].[TeH-]
p1888
sI1888
S'O.O.O.O.O.O.O.O.O.O.[Na+].[Na+].[O-][S]([O-])(=O)=O'
p1889
sI1889
VReaxys Name chromium (VI) oxide
p1890
sI1890
VReaxys Name 1,1'-bis(diisopropylphosphino)ferrocene
p1891
sI1891
S'[OH-].[Cs+]'
p1892
sI1892
VCN(C)C(ON1N=N(=O)C2=CC=CC=C21)=[N+](C)C.FP(F)(F)(F)(F)F
p1893
sI1893
VO=C(O)C1=CC=CC=C1OI
p1894
sI1894
V[Na+].[O-]B1OO1
p1895
sI1895
VReaxys Name chromium(VI) oxide - pyridine
p1896
sI1896
S'Nc1cncn1C2OC(CO[P](O)(O)=O)C(O)C2O'
p1897
sI1897
S'Reaxys ID 14500440'
p1898
sI1898
VReaxys Name Pseudomonas cepacia lipase
p1899
sI1899
V[K+].[O]N(S(=O)(=O)[O-])S(=O)(=O)[O-]
p1900
sI1900
VCN(C)C(ON1N=NC2=CC=C(Cl)C=C21)=[N+](C)C.FP(F)(F)(F)(F)F
p1901
sI1901
VCC1=CC=C(S(=O)(=O)OC2=CC=CC(I)=C2O)C=C1
p1902
sI1902
S'O.O.O.O.O.O.[Mg++].[O-][N+]([O-])=O.[O-][N+]([O-])=O'
p1903
sI1903
S'Reaxys ID 14539757'
p1904
sI1904
S'Reaxys ID 14541048'
p1905
sI1905
VO=Cl(=O)(=O)[O-].O=[BiH2+]
p1906
sI1906
VNC(=O)C1=CN([C@@H]2O[C@H](COP(=O)(O)OP(=O)(O)OC[C@H]3O[C@@H](C4=NC5=C(N=CN=C5N)N4)[C@H](O)[C@@H]3O)[C@@H](O)[C@H]2O)C=CC1
p1907
sI1907
S'Reaxys ID 14579281'
p1908
sI1908
VReaxys Name Polyphosphoric acid (PPA)
p1909
sI1909
VBrC1(Br)COCCO1
p1910
sI1910
S'[Li+].[BH4-]'
p1911
sI1911
VCC(C)(C)O[Al-](OC(C)(C)C)OC(C)(C)C.[Li+]
p1912
sI1912
VO=C([O-])[O-].[H]O[H].[Na+]
p1913
sI1913
VC1CCCCC(C2CCCCCCCCN=N2)N=NCCC1
p1914
sI1914
VO=P(O)(O)O.O=[Mo](=O)=O
p1915
sI1915
VO=[N+]([O-])[O-].[Cu+2].[H]O[H]
p1916
sI1916
VO=[N+]([O-])[O-].[H]O[H].[Tl+3]
p1917
sI1917
VO=[N+]([O-])[O-].[Bi+3].[H]O[H]
p1918
sI1918
VO=[N+]([O-])[O-].[H]O[H].[Zn+2]
p1919
sI1919
VCC(=O)[O-].[Cu+2].[H]O[H]
p1920
sI1920
VC[N+](C)(C)CC1=CC=CC=C1.[Br-]
p1921
sI1921
VO=S(=O)([O-])OS(=O)(=O)[O-].[K+]
p1922
sI1922
V[AlH7-].[Na+]
p1923
sI1923
VO=S(=O)([O-])[O-].[AlH3+3].[H]O[H].[K+]
p1924
sI1924
VCC(C)(C)[O]
p1925
sI1925
VNC1=C(F)C(F)=C(F)C(F)=C1F.O=S(=O)(O)C(F)(F)F
p1926
sI1926
VReaxys Name potassium sulfide
p1927
sI1927
VN=N#N
p1928
sI1928
VO=S(=O)([O-])O.[AlH3+3]
p1929
sI1929
VC1COCCN2CCOCCOCCN(CCO1)CCOCCOCC2.[18F-].[K+]
p1930
sI1930
S'[F-].[F-].[F-].[In+3]'
p1931
sI1931
S'[Co++].[cH-]1cccc1.[cH-]2cccc2'
p1932
sI1932
VReaxys Name hesperidinase
p1933
sI1933
VO=C([O-])C1=CC(C(=O)[O-])=CC(C(=O)[O-])=C1.[Cu+2]
p1934
sI1934
S'Reaxys ID 15497285'
p1935
sI1935
S'Reaxys ID 15511195'
p1936
sI1936
S'OC[C@@H](O)[C@@H](O)[C@@H](O)CNC1=C(C(=O)NC(=O)N1)[N+]([O-])=O'
p1937
sI1937
S'Reaxys ID 15529300'
p1938
sI1938
V[Cl-].[H][C@]12CC3=C(C=CC=C3)[C@@]1([H])N1C=[N+](C3=C(C)C=C(C)C=C3C)N=C1CO2
p1939
sI1939
V[H][C@@]1([C@@H](O)CO)OC(=O)C(O)=C1[O-].[Na+]
p1940
sI1940
VII[I-].[K+]
p1941
sI1941
VC[Si](C)(C)OC(C1=CC=CC=C1)(C1=CC=CC=C1)[C@H]1CCCN1
p1942
sI1942
S'[Na+].[Cl-]'
p1943
sI1943
V[K+].[O]N(S(=O)(=O)[O-])S(=O)(=O)[O-]
p1944
sI1944
S'Cl.NN'
p1945
sI1945
VCC1=CC(C)=C(N2C=[N+]3CCCC3=N2)C(C)=C1.[Cl-]
p1946
sI1946
VCC(C)C1=CC=CC(C(C)C)=C1NC(=O)[C@@H]1CCCC[N+]1([O-])CCC[N+]1([O-])CCCC[C@H]1C(=O)NC1=C(C(C)C)C=CC=C1C(C)C
p1947
sI1947
V[H][C@@]12CCC[C@]1([H])[N+]([O-])(CCC[N+]1([O-])[C@H](C(=O)NC3=C(C(C)C)C=CC=C3C(C)C)C[C@]3([H])CCC[C@@]31[H])[C@H](C(=O)NC1=C(C(C)C)C=CC=C1C(C)C)C2
p1948
sI1948
V[Hg].[Zn]
p1949
sI1949
VReaxys Name tetrabutylammonium hexanitratocerate(IV)
p1950
sI1950
VO=NN(=O)=O
p1951
sI1951
VO=P([O-])([O-])[O-].[H]O[H].[K+]
p1952
sI1952
VReaxys Name ClAu(di(tert-butyl)(1,1?-biphenyl-2-yl)-phosphine)
p1953
sI1953
VO=S(=O)([N-]S(=O)(=O)C(F)(F)F)C(F)(F)F.[In+3]
p1954
sI1954
VC1=CC=C(P(C2=CC=CC=C2)C2=CC=CC=C2)C=C1.O=S(=O)([N-]S(=O)(=O)C(F)(F)F)C(F)(F)F.[Au+]
p1955
sI1955
VReaxys Name 2-(dicyclohexylphosphino)-2',4',6'-triisopropylbiphenyl Au bis(trifluoromethylsulfonyl)imide
p1956
sI1956
S'Reaxys ID 16438376'
p1957
sI1957
VCC1=C(O)C(C(=O)[O-])=CC=C1.[Cu+]
p1958
sI1958
VNN.[H]O[H]
p1959
sI1959
V[NaH].[NaH].[TeH2]
p1960
sI1960
S'O.O.O.O.[Cl-].[Cl-].[Fe++]'
p1961
sI1961
VO=S(=O)([O-])O.[Mg+2]
p1962
sI1962
VO=BO[O-].[H]O[H].[Na+]
p1963
sI1963
S'Reaxys ID 16472921'
p1964
sI1964
S'Reaxys ID 16474599'
p1965
sI1965
VO=Cl(=O)(=O)[O-].[H]O[H].[Ni+2]
p1966
sI1966
S'[Br-].[InH2+]'
p1967
sI1967
VC.C.C.C.C.C.[KH]
p1968
sI1968
VO=N(=O)[O-].[H]O[H].[Sm+3]
p1969
sI1969
S'OC(=O)CCCC(=O)Nc1ccc(cc1)\\C=C\\c2ccccc2'
p1970
sI1970
VO=S(=O)([O-])[O-].[Fe+3].[H]O[H]
p1971
sI1971
S'O.Cl[Sn]Cl'
p1972
sI1972
VReaxys Name sodium monohydrogen sulfide n-hydrate
p1973
sI1973
VO=N(=O)[O-].[H]O[H].[Y+3]
p1974
sI1974
S'O.O.O.O.O.O.O.O.[OH-].[OH-].[Ba++]'
p1975
sI1975
S'Reaxys ID 16494176'
p1976
sI1976
S'Reaxys ID 16494913'
p1977
sI1977
VReaxys Name hexaammonium heptamolybdate tetrahydrate
p1978
sI1978
V[Hg].[MgH2]
p1979
sI1979
VC.C.[CaH2]
p1980
sI1980
VO=O
p1981
sI1981
VReaxys Name dibutylzirconocene
p1982
sI1982
S'Reaxys ID 16518682'
p1983
sI1983
S'Reaxys ID 16519128'
p1984
sI1984
VO=S(=O)([O-])[O-].[Ce+4].[H]O[H]
p1985
sI1985
S'[Li+].O.[OH-]'
p1986
sI1986
VReaxys Name bis(2-phenylpyridinato)(2,2'-bipyridine)iridium(III) hexafluorophosphate
p1987
sI1987
VCl[Au-](Cl)(Cl)Cl.[H]O[H].[Na+]
p1988
sI1988
VReaxys Name zirconium(IV) dichloride oxide octahydrate
p1989
sI1989
VO=Cl(=O)(=O)[O-].[Fe+3].[H]O[H]
p1990
sI1990
V[Na+].[Se-][Se-]
p1991
sI1991
VCCCC[P+](C1=CC=CC=C1)(C1=CC=CC=C1)C1=CC=CC=C1.O=[Cr](=O)([O-])O[Cr](=O)(=O)[O-]
p1992
sI1992
S'Reaxys ID 16706557'
p1993
sI1993
VF[B-](F)(F)F.[H]O[H].[Ni+2]
p1994
sI1994
VC1=CC=C(P(C2=CC=CC=C2)C2=CC=CC=C2)C=C1.[Au+].[Cl-]
p1995
sI1995
S'Reaxys ID 16768007'
p1996
sI1996
VN1S2NS3NS2NS13
p1997
sI1997
S'CC1=C(C)C(C)(C)C(=C1C)[Co](I)(I)=C=O'
p1998
sI1998
VC1=CC=NC=C1.F[B-](F)(F)F.[I+]
p1999
sI1999
VO=P([O-])([O-])[O-].[H]O[H].[K+]
p2000
sI2000
VO=P([O-])([O-])[O-].[H]O[H].[K+]
p2001
sI2001
VN#N=NI
p2002
sI2002
VO=S(=O)([O-])OF.[Cs+]
p2003
sI2003
S'O.[OH-].[Cs+]'
p2004
sI2004
VCP(C)(C)[Co](P(C)(C)C)(P(C)(C)C)P(C)(C)C
p2005
sI2005
S'Reaxys ID 16889173'
p2006
sI2006
VO=S(=O)([O-])O.[Fe+3]
p2007
sI2007
VReaxys Name NaHS monohydrate
p2008
sI2008
S'O.O.O.O.[Na+].[O-]B1OO1'
p2009
sI2009
V[H][Se-].[Na+]
p2010
sI2010
VReaxys Name dichloro(pyridine-2-carboxylato)gold(III)
p2011
sI2011
S'Reaxys ID 17340845'
p2012
sI2012
S'Reaxys ID 17485095'
p2013
sI2013
VC1=CC=NC=C1.[H]F
p2014
sI2014
S'Reaxys ID 17606359'
p2015
sI2015
VReaxys Name potassium hydroxide semihydrate
p2016
sI2016
VReaxys Name tetrakis[?-(?S)-?-(1,1-dimethylethyl)-2,3-dihydro-1H-naphtho[1,8-cd]pyridine-2-acetato-?O:?O']dirhodium(II)
p2017
sI2017
VCC(C)C1=CC=CC(C(C)C)=C1N1[C-]=[N+](C2=C(C(C)C)C=CC=C2C(C)C)C=C1.Cl
p2018
sI2018
VReaxys Name (4,4'-di-tert-butyl-2,2'-dipyridyl)-bis-(2-phenylpyridine(-1H))-iridium(III) hexafluorophosphate
p2019
sI2019
VO=C(C=CC1=CC=CC=C1)C=CC1=CC=CC=C1.[Pt]
p2020
sI2020
VReaxys Name 1-n-butylpyridinium tetrachloroferrate
p2021
sI2021
VReaxys Name dioxo[bis(sulfato-$dot$kappa$dot$O)]molybdenum
p2022
sI2022
VCC1=CC=C(S(=O)(=O)[O-])C=C1.[Fe+3].[H]O[H]
p2023
sI2023
S'Reaxys ID 18026955'
p2024
sI2024
VReaxys Name [Au(1,3-bis(2,6-diisopropylphenyl)imidazol-2-ylidene)(bis-(trifluoromethanesulfonyl)imidate)]
p2025
sI2025
VO=S(=O)(O)OB(OS(=O)(=O)O)OS(=O)(=O)O
p2026
sI2026
S'Reaxys ID 18265035'
p2027
sI2027
S'Reaxys ID 18366355'
p2028
sI2028
S'Reaxys ID 18377859'
p2029
sI2029
S'Reaxys ID 18472854'
p2030
sI2030
S'Cc1cc(C)c(c(C)c1)[n+]2cn3[C@@H]4[C@@H](Cc5ccccc45)OCc3n2.F[B-](F)(F)F'
p2031
sI2031
VCN(C)[C@@H]1CCCC[C@H]1NC(=S)N[C@H](C1=CC=CC=C1)[C@H](NS(=O)(=O)C1=CC(C(F)(F)F)=CC(C(F)(F)F)=C1)C1=CC=CC=C1
p2032
sI2032
VReaxys Name sodium acetate buffer
p2033
sI2033
VReaxys Name sodium phosphate buffer
p2034
sI2034
VReaxys Name borate buffer
p2035
sI2035
S'Reaxys ID 18709877'
p2036
sI2036
S'Reaxys ID 18719377'
p2037
sI2037
S'Reaxys ID 18721096'
p2038
sI2038
VReaxys Name Zhan 1b catalyst
p2039
sI2039
VO=C(O)C1=CC=CC(C(=O)O)=N1.O=[Cr](=O)(O)Cl
p2040
sI2040
S'Reaxys ID 18735521'
p2041
sI2041
VCN1C=C[N+](CCCCS(=O)(=O)O)=C1.O=S(=O)([O-])O
p2042
sI2042
VO=P1(O)OC2=C(C3=CC=CC=C3C=C2[Si](C2=CC=CC=C2)(C2=CC=CC=C2)C2=CC=CC=C2)C2=C(O1)C([Si](C1=CC=CC=C1)(C1=CC=CC=C1)C1=CC=CC=C1)=CC1=CC=CC=C12
p2043
sI2043
VO=P1(O)OC2=C(C3=CC=CC=C3C=C2C2=CC3=CC=CC=C3C3=CC=CC=C32)C2=C(O1)C(C1=CC3=CC=CC=C3C3=C1C=CC=C3)=CC1=CC=CC=C12
p2044
sI2044
VCC(C)C1=CC(C(C)C)=C(C2=CC3=CC=CC=C3C3=C2OP(=O)(O)OC2=C3C3=CC=CC=C3C=C2C2=C(C(C)C)C=C(C(C)C)C=C2C(C)C)C(C(C)C)=C1
p2045
sI2045
VReaxys Name 10 Pd/C
p2046
sI2046
VReaxys Name 5 Pd/C
p2047
sI2047
S'Reaxys ID 18825744'
p2048
sI2048
VC[Si](C)(C)OC(C1=CC=CC=C1)(C1=CC=CC=C1)C1CCCN1
p2049
sI2049
V[AlH6].[Hg]
p2050
sI2050
VO=P1(O)OC2=C(C3=C4C=CC=CC4=CC4=CC=CC=C43)C=C3C=CC=CC3=C2C2=C(O1)C(C1=C3C=CC=CC3=CC3=CC=CC=C31)=CC1=CC=CC=C12
p2051
sI2051
VCN(C)C1=CC2=C3C=C(N(C)C)C=CN3CCCN2C=C1
p2052
sI2052
VC1COCCN1.O=[Cr](=O)(O)Cl
p2053
sI2053
S'Reaxys ID 18874486'
p2054
sI2054
VReaxys Name 10 Pd/C
p2055
sI2055
VReaxys Name acetate buffer
p2056
sI2056
VCl[Au][PH](C1=CC=CC=C1)(C1=CC=CC=C1)C1=CC=CC=C1
p2057
sI2057
VBr[Cu]Br.[Li+]
p2058
sI2058
S'Reaxys ID 18902179'
p2059
sI2059
VReaxys Name 10 Pd on charcoal
p2060
sI2060
S'Reaxys ID 19016041'
p2061
sI2061
VReaxys Name 1,1'-(ethane-1,2-diyl)dipyridinium ditribromide
p2062
sI2062
S'[K+].O[S](=O)(=O)OO[S]([O-])(=O)=O'
p2063
sI2063
V[H][C@@]12CCN(C[C@@H]1C=C)[C@]([H])([C@@H](NC(=S)NC1=CC(C(F)(F)F)=CC(C(F)(F)F)=C1)C1=C3C=C(OC)C=CC3=NC=C1)C2
p2064
sI2064
S'Reaxys ID 19095706'
p2065
sI2065
S'Reaxys ID 19096014'
p2066
sI2066
S'Reaxys ID 19100772'
p2067
sI2067
VCC1=CC(C)=C([N+]2=CSC3=C2CCCCC3)C(C)=C1.O=Cl(=O)(=O)[O-]
p2068
sI2068
VC1=CC=NC=C1.O=[Cr](=O)(O)Br
p2069
sI2069
S'[Li+].O.[OH-]'
p2070
sI2070
VC1=CC2=C(C=C1)N=CC=C2.O=[Cr](=O)(O)Br
p2071
sI2071
VC1=CC=C(C[N+]23CCN(CC2)CC3)C=C1.O=[Cr](=O)([O-])O[Cr](=O)(=O)[O-]
p2072
sI2072
VCCCCCC[N+]1=CN(C)C=C1.O=S(=O)([O-])O
p2073
sI2073
VO=C(O)C1=CC=CN=C1.O=[Cr](=O)(O)Cl
p2074
sI2074
VCC(C)C1=CC=CC(C(C)C)=C1N1C=CN(C2=C(C(C)C)C=CC=C2C(C)C)C1[Au]Cl
p2075
sI2075
VC1=CC=C(C[P+](C2=CC=CC=C2)(C2=CC=CC=C2)C2=CC=CC=C2)C=C1.O=S(=O)([O-])OOS(=O)(=O)[O-]
p2076
sI2076
S'[Cu++].[O-][Mn](=O)(=O)=O.[O-][Mn](=O)(=O)=O.c1ccc(nc1)c2ccccn2.c3ccc(nc3)c4ccccn4'
p2077
sI2077
VC1=CC=NC=C1.O=[Cr](=O)=O
p2078
sI2078
VReaxys Name Collins oxidation agent
p2079
sI2079
VReaxys Name HMTAB
p2080
sI2080
S'Reaxys ID 19238769'
p2081
sI2081
VO=S(=O)(O)O[W](=O)(=O)OS(=O)(=O)O
p2082
sI2082
VO=S(=O)([O-])C(F)(F)F.[In+]
p2083
sI2083
VCC(C)CN1CCP2CCN(CC(C)C)N1N(CC(C)C)CC2
p2084
sI2084
VCN1CCP2CCN(C)N1N(C)CC2
p2085
sI2085
V[Li]C1=C(C2=CC=C(C(C)(C)C)C=C2)C=CC(C(C)(C)C)=C1
p2086
sI2086
VC1=CC=C(C[P+](C2=CC=CC=C2)(C2=CC=CC=C2)C2=CC=CC=C2)C=C1.O=[Cr](=O)([O-])O[Cr](=O)(=O)[O-]
p2087
sI2087
VC1=CC=C(C[P+](C2=CC=CC=C2)(C2=CC=CC=C2)C2=CC=CC=C2)C=C1.[Br-]
p2088
sI2088
VCCCCN1OC1(F)CCC
p2089
sI2089
S'[OH-].[O--].[P-3].[Mo]'
p2090
sI2090
VCN(C)CCCN=C=NCN.Cl
p2091
sI2091
VReaxys Name (Rearrangement)
p2092
sI2092
VReaxys Name 3 A molecular sieve
p2093
sI2093
VReaxys Name 3 Angstroem MS
p2094
sI2094
VReaxys Name 4 A molecular sieve
p2095
sI2095
VReaxys Name 4 Angstroem MS
p2096
sI2096
VReaxys Name 5A molecular sieve
p2097
sI2097
VReaxys Name AD-mix-?
p2098
sI2098
S'Reaxys ID 19255299'
p2099
sI2099
VReaxys Name alkali hydroxide
p2100
sI2100
VReaxys Name alkaline permanganate
p2101
sI2101
VReaxys Name alkaline solution
p2102
sI2102
S'Reaxys ID 19257205'
p2103
sI2103
S'C[N+](C)(C)Cc1ccccc1.Cl[Br](=O)=O'
p2104
sI2104
VReaxys Name boron fluoride ether
p2105
sI2105
VReaxys Name copper oxide-chromium oxide
p2106
sI2106
VReaxys Name coppered zinc
p2107
sI2107
VReaxys Name HEPES buffer
p2108
sI2108
VReaxys Name Hg(II)-EDTA
p2109
sI2109
VReaxys Name ion-exchange resin lt;H+ formgt;
p2110
sI2110
VReaxys Name ion-exchange resin lt;OH- formgt;
p2111
sI2111
VReaxys Name Lewis acid
p2112
sI2112
S'Cc1cccc(C)n1'
p2113
sI2113
VReaxys Name mineral acid
p2114
sI2114
VReaxys Name mixture of gaseous nitrogen oxides
p2115
sI2115
VReaxys Name montmorillonite K-10
p2116
sI2116
VReaxys Name MS 4 Angstroem
p2117
sI2117
VReaxys Name Nafion-H
p2118
sI2118
VReaxys Name nickel kieselguhr
p2119
sI2119
VReaxys Name N-methylisatoic anhydride resin
p2120
sI2120
VReaxys Name nitric oxide
p2121
sI2121
VReaxys Name nitrogen oxides
p2122
sI2122
VReaxys Name polymer-bound dimethylaminopyridine
p2123
sI2123
VReaxys Name polymer-bound EDC
p2124
sI2124
VReaxys Name polystyrene-bound 4-(N-benzyl-N-methylamino)pyridine
p2125
sI2125
VReaxys Name polystyrene-bound piperidine
p2126
sI2126
VReaxys Name PS-morpholine
p2127
sI2127
VReaxys Name pumice stone
p2128
sI2128
S'[Co++].[O-]c1ccccc1C=NCCN=Cc2ccccc2[O-]'
p2129
sI2129
VReaxys Name Silphos
p2130
sI2130
VReaxys Name steam
p2131
sI2131
VReaxys Name sulfated zirconia
p2132
sI2132
VReaxys Name sulfonic acid resin MP
p2133
sI2133
VReaxys Name TFA-anisole
p2134
sI2134
S'F.F.F.CCN(CC)CC'
p2135
sI2135
VReaxys Name triethylammonium methylpolystyrene triacetoborohydride
p2136
sI2136
S'C[Sn](C)(C)N=[N+]=[N-]'
p2137
sI2137
S'NC(CO)(CO)CO'
p2138
sI2138
S'NC(N)=O.OO'
p2139
sI2139
S'NC(N)=O.OO'
p2140
sI2140
VReaxys Name vanadyl acetylacetonate
p2141
sI2141
VReaxys Name WSC*HCl
p2142
sI2142
S'[BH4-].[BH4-].[Zn++]'
p2143
sI2143
VReaxys Name zirconocene dichloride
p2144
sI2144
VReaxys Name TMPZnCl*LiCl
p2145
sI2145
VC[N+](C)(C)CCO.NC(N)=O.[Cl-]
p2146
sI2146
S'O.O.O.O.O.O.O.[Cl-].[Cl-].[Cl-].[La+3]'
p2147
sI2147
VCC1=CC=CC=C1.O=S(=O)(N([Au]P(C1=CC=CC=C1)(C1=CC=CC=C1)C1=CC=CC=C1)S(=O)(=O)C(F)(F)F)C(F)(F)F
p2148
sI2148
VReaxys Name palladium 10 on activated carbon
p2149
sI2149
VO=S(=O)([N-]S(=O)(=O)C(F)(F)F)C(F)(F)F.[Ca+2]
p2150
sI2150
VCN1C=C[N+](CCOS(=O)(=O)O)=C1.[Cl-]
p2151
sI2151
VO=S(=O)([O-])O.O=S(=O)([O-])OO.O=S(=O)([O-])[O-].[K+]
p2152
sI2152
VCCOC(=O)C(C#N)=NO[C+](N(C)C)N1CCOCC1.FP(F)(F)(F)(F)F
p2153
sI2153
S'OCCN(CCO)CCO'
p2154
sI2154
VCC(C)[C@@H]1CN2C3=CC=CC=C3SC2=N[C@@H]1C1=CC=CC=C1
p2155
sI2155
VO=C1C2=C(C=CC=C2)S(=O)(=O)N1S(=O)(=O)O
p2156
sI2156
S'Reaxys ID 20151466'
p2157
sI2157
VO=S(=O)(O)NC1=NC(NS(=O)(=O)O)=NC(NS(=O)(=O)O)=N1
p2158
sI2158
S'Reaxys ID 20217624'
p2159
sI2159
V[H][C@@]12CCN(C[C@@H]1C=C)[C@]([H])([C@@H](NC1=C(NCC3=CC(C(F)(F)F)=CC(C(F)(F)F)=C3)C(=O)C1=O)C1=C3C=C(OC)C=CC3=NC=C1)C2
p2160
sI2160
S'Reaxys ID 20250187'
p2161
sI2161
S'Reaxys ID 20303786'
p2162
sI2162
S'Reaxys ID 20303787'
p2163
sI2163
VReaxys Name Pd-PEPPSI-IPent
p2164
sI2164
S'Reaxys ID 20359749'
p2165
sI2165
VReaxys Name cellulose sulfuric acid
p2166
sI2166
VCC[C@H](C)[C@@H](CP(C1=CC=CC=C1)C1=CC=CC=C1)NC(=O)C1=CC(C(F)(F)F)=CC(C(F)(F)F)=C1
p2167
sI2167
VCl[Pd](Cl)(P(C1CCCCC1)(C1CCCCC1)N1CCCCC1)P(C1CCCCC1)(C1CCCCC1)N1CCCCC1
p2168
sI2168
VReaxys Name palladium 10 on activated carbon
p2169
sI2169
VCS(=O)(=O)O.O=P(=O)OP(=O)=O
p2170
sI2170
S'Reaxys ID 20588003'
p2171
sI2171
V[H][C@@]12CCC[C@]1([H])[N@@+]([O-])(CCC[N@@+]1([O-])[C@H](C(=O)NC3=C(C(C)C)C=CC=C3C(C)C)C[C@]3([H])CCC[C@@]31[H])[C@H](C(=O)NC1=C(C(C)C)C=CC=C1C(C)C)C2
p2172
sI2172
S'Reaxys ID 20657535'
p2173
sI2173
S'Reaxys ID 20796776'
p2174
sI2174
VReaxys Name palladium 10 on activated carbon
p2175
sI2175
VReaxys Name DIPEA
p2176
sI2176
S'Reaxys ID 21024018'
p2177
sI2177
V[H][C@@]12CCN(C[C@@H]1C=C)[C@]([H])([C@@H](NC1=C(NC3=CC(C(F)(F)F)=CC(C(F)(F)F)=C3)C(=O)C1=O)C1=CC=NC3=C1C=C(OC)C=C3)C2
p2178
sI2178
VReaxys Name 10 palladium on activated carbon
p2179
sI2179
VCN1CCCC1=O.O=S(=O)(O)O
p2180
sI2180
VO=C(NC1=CC(C(F)(F)F)=CC(C(F)(F)F)=C1)NC1=CC=CC=C1B(F)F
p2181
sI2181
S'Reaxys ID 21455392'
p2182
sI2182
VReaxys Name perchloric acid adsorbed on silica gel
p2183
sI2183
S'Reaxys ID 21565323'
p2184
sI2184
VReaxys Name silica-gel-supported sulfuric acid
p2185
sI2185
VReaxys Name potassium fluoride/aluminium oxide
p2186
sI2186
VReaxys Name 20 palladium hydroxide on charcoal
p2187
sI2187
VReaxys Name Pearlman's catalist
p2188
sI2188
VCN(C)CCNC(=S)NC1=CC(C(F)(F)F)=CC(C(F)(F)F)=C1
p2189
sI2189
VReaxys Name NHC-Pd(II)-Im
p2190
sI2190
S'Reaxys ID 22015134'
p2191
sI2191
VReaxys Name silica gel supported sodium hydrogen sulfate
p2192
sI2192
S'Reaxys ID 22070889'
p2193
sI2193
S'Reaxys ID 22408730'
p2194
sI2194
VCC[N+](CC)(CC)S(=O)(=O)O.[Cl-]
p2195
sI2195
VReaxys Name 1-butyl-3-methylimidazolium tetrachloroindate
p2196
sI2196
VCC(C)(C)[C@H](N)CNC1CCCCC1
p2197
sI2197
VCC1(C)C2=CC=CC3=C2OC2=C1C=CC=C2P(C1=CC=CC=C1)(C1=CC=CC=C1)[Pd](Cl)(Cl)P3(C1=CC=CC=C1)C1=CC=CC=C1
p2198
sI2198
S'Reaxys ID 22750896'
p2199
sI2199
S'Reaxys ID 22805418'
p2200
sI2200
V[Ag]
p2201
sI2201
VReaxys Name 5 Pd/C
p2202
sI2202
VReaxys Name 10 Pd/C
p2203
sI2203
VReaxys Name CuI
p2204
sI2204
VReaxys Name 10 Pd/C
p2205
sI2205
S'O=[Cu]'
p2206
sI2206
VReaxys Name nickel(II) ferrite
p2207
sI2207
V[Pd]
p2208
sI2208
VReaxys Name zinc(II) oxide
p2209
sI2209
V[Cu]
p2210
sI2210
V[Au]
p2211
sI2211
S'O=[Si]=O'
p2212
sI2212
S'Reaxys ID 22939008'
p2213
sI2213
V[Ni]
p2214
sI2214
S'O=[Mg]'
p2215
sI2215
S'Reaxys ID 22967440'
p2216
sI2216
VReaxys Name sodium amalgam
p2217
sI2217
S'Reaxys ID 22989611'
p2218
sI2218
S'O=[Zr]=O'
p2219
sI2219
S'Reaxys ID 23013228'
p2220
sI2220
S'Reaxys ID 23034685'
p2221
sI2221
S'O=[Ce]=O'
p2222
sI2222
VO=S(=O)(O)N1C=C[N+](S(=O)(=O)O)=C1.O=S(=O)([O-])O
p2223
sI2223
S'[OH2--].[Cu+].[Cu+]'
p2224
sI2224
S'Reaxys ID 23130651'
p2225
sI2225
S'Reaxys ID 23142567'
p2226
sI2226
VReaxys Name zinc ferrite
p2227
sI2227
VO=[V](=O)OS(=O)(=O)O
p2228
sI2228
S'Reaxys ID 23164488'
p2229
sI2229
S'Reaxys ID 23167399'
p2230
sI2230
VReaxys Name wurtzite
p2231
sI2231
S'O=[Ni]'
p2232
sI2232
VReaxys Name alcalase-CLEA-OM
p2233
sI2233
V[H][C@@]12CCN(C[C@@H]1C=C)[C@]([H])([C@@H](NC1=C(NC3=CC(C(F)(F)F)=CC(C(F)(F)F)=C3)C(=O)C1=O)C1=CC=NC3=CC=C(OC)C=C31)C2
p2234
sI2234
VCC1(C)O[IH2](F)C2=CC=CC=C21
p2235
sI2235
VFC1=C(F)C(F)=C([B-](C2=C(F)C(F)=C(F)C(F)=C2F)(C2=C(F)C(F)=C(F)C(F)=C2F)C2=C(F)C(F)=C(F)C(F)=C2F)C(F)=C1F.FC1=C(F)C(F)=C([P+](F)(C2=C(F)C(F)=C(F)C(F)=C2F)C2=C(F)C(F)=C(F)C(F)=C2F)C(F)=C1F
p2236
sI2236
VCCCC[N+]1(CCCS(=O)(=O)O)CCS(=O)(=O)CC1.O=S(=O)([O-])C(F)(F)F
p2237
sI2237
VO=S(=O)(NBr)C1=CC2=C(C=C1Cl)NCN(Br)S2(=O)=O
p2238
sI2238
S'Reaxys ID 27810310'
p2239
sI2239
S'Reaxys ID 28639053'
p2240
s.