(dp0
I0
S''
p1
sI1
VCN1CCCCC1
p2
sI2
VC1=CNC=C1
p3
sI3
VCC1=CN=CC=C1
p4
sI4
VCC1=CC(C)=NC=C1
p5
sI5
VFC1=NC=CC=C1
p6
sI6
VC1N2CN3CN1CN(C2)C3
p7
sI7
VC1CN=C2CCCN2C1
p8
sI8
VC1CN=C2NCCCN2C1
p9
sI9
VCN(C)C1=CC=N(=O)C=C1
p10
sI10
VOn1nnc2ccccc21
p11
sI11
VO=C(N1C=CN=C1)N1C=CN=C1
p12
sI12
VO=C(O)C1=CC=CC(C(=O)O)=N1=O
p13
sI13
VOC(C1=CC=CC=C1)(C1=CC=CC=C1)[C@@H]1CCCN1
p14
sI14
VO=C1N(Br)C(=O)N(Br)C(=O)N1Br
p15
sI15
V[H][C@]12C[C@@]3([H])C4=CCO[C@@]5([H])CC(=O)N6C7=C(C=CC=C7)[C@@]1(CCN2C4)[C@]6([H])[C@]53[H]
p16
sI16
V[H][C@]12C[C@@]3([H])C4=CCO[C@@]5([H])CC(=O)N6C7=C(C=C(OC)C(OC)=C7)[C@@]1(CCN2C4)[C@]6([H])[C@]53[H]
p17
sI17
VO=C1OC2(C3=CC(Br)=C(O)C(Br)=C3OC3=C2C=C(Br)C(O)=C3Br)C2=C1C=CC=C2
p18
sI18
VNC1=NC=NC2=C1N=CN2[C@@H]1O[C@H](COP(=O)(O)OP(=O)(O)OP(=O)(O)O)[C@@H](O)[C@H]1O
p19
sI19
VNC(=O)C1=CN([C@@H]2O[C@H](COP(=O)(O)OP(=O)(O)OC[C@H]3O[C@@H](N4C=NC5=C4N=CN=C5N)[C@H](OP(=O)(O)O)[C@@H]3O)[C@@H](O)[C@H]2O)C=CC1
p20
sI20
V[H][C@@]12O[C@@]3([H])O[C@H](CO)[C@@]([H])(O[C@@]4([H])O[C@H](CO)[C@@]([H])(O[C@@]5([H])O[C@H](CO)[C@@]([H])(O[C@@]6([H])O[C@H](CO)[C@@]([H])(O[C@@]7([H])O[C@H](CO)[C@@]([H])(O[C@@]8([H])O[C@H](CO)[C@@]([H])(O[C@@]([H])(O[C@@H]1CO)[C@H](O)[C@H]2O)[C@H](O)[C@H]8O)[C@H](O)[C@H]7O)[C@H](O)[C@H]6O)[C@H](O)[C@H]5O)[C@H](O)[C@H]4O)[C@H](O)[C@H]3O
p21
sI21
VNC(=O)C1=CN([C@@H]2O[C@H](COP(=O)(O)OP(=O)(O)OC[C@H]3O[C@@H](N4C=NC5=C4N=CN=C5N)[C@H](O)[C@@H]3O)[C@@H](O)[C@H]2O)C=CC1
p22
sI22
VCC1CO1
p23
sI23
VClCC1CO1
p24
sI24
VOC1CN2CCC1CC2
p25
sI25
VO=C(O)[C@@H]1CCCN1
p26
sI26
VO=C(O)[C@H]1CCCN1
p27
sI27
V[H][C@@]12CCCCN1C[C@@H]1C[C@H]2CN2CCCC[C@]12[H]
p28
sI28
V[H][C@](O)(C1=CC=NC2=C1C=CC=C2)[C@@]1([H])C[C@@H]2CCN1C[C@@H]2C=C
p29
sI29
V[H][C@@]1([C@]([H])(O)C2=CC=NC3=CC=CC=C32)C[C@@H]2CCN1C[C@@H]2C=C
p30
sI30
VOC[C@H]1O[C@H](O[C@]2(CO)O[C@H](CO)[C@@H](O)[C@@H]2O)[C@H](O)[C@@H](O)[C@@H]1O
p31
sI31
VC=CC1CN2CCC1CC2C(O)c1ccnc2ccc(OC)cc12
p32
sI32
VC1CO1
p33
sI33
VC1CCOC1
p34
sI34
VC1CCNC1
p35
sI35
VCCC1CO1
p36
sI36
VC=N#N
p37
sI37
VC1CCNCC1
p38
sI38
VCN1CCCC1
p39
sI39
VC1COCCN1
p40
sI40
VC1COCCO1
p41
sI41
VC1CNCCN1
p42
sI42
VCCN1CCCCC1
p43
sI43
VCN1CCOCC1
p44
sI44
VCN1CCNCC1
p45
sI45
VCCN1CCOCC1
p46
sI46
VC=O
p47
sI47
VC1CN2CCC1CC2
p48
sI48
VC1=CSC=C1
p49
sI49
Vc1ccncc1
p50
sI50
VC1CN2CCN1CC2
p51
sI51
VC1=CNN=C1
p52
sI52
VCN1C(C)(C)CCCC1(C)C
p53
sI53
Vc1c[nH]cn1
p54
sI54
VC=CC1=CC=NC=C1
p55
sI55
VCC1=NC=CC=C1
p56
sI56
VCC1=CC=NC=C1
p57
sI57
VC1=NC=NN1
p58
sI58
VCN1C=CN=C1
p59
sI59
VO=N1=CC=CC=C1
p60
sI60
VCC1=CC=CC(C)=N1
p61
sI61
VNC1=NC=CC=C1
p62
sI62
VOC1=NC=CC=C1
p63
sI63
VClC1=CC=CC=N1
p64
sI64
Vc1nnn[nH]1
p65
sI65
VCC1=CC(C)=NN1
p66
sI66
VCN1CCCC1=O
p67
sI67
VO=C1C=CC(=O)O1
p68
sI68
VCc1cc(C)nc(C)c1
p69
sI69
Vc1ccc2ncccc2c1
p70
sI70
VC1=CC=C2C=NC=CC2=C1
p71
sI71
VO=S1(=O)CCCC1
p72
sI72
VCc1cnc(C)c(C)c1
p73
sI73
VCN(C)C1=NC=CC=C1
p74
sI74
VCN(C)c1ccncc1
p75
sI75
VCN1CCCN(C)C1=O
p76
sI76
VC1=CC=C2NN=NC2=C1
p77
sI77
Vc1ccc(-c2ccccn2)nc1
p78
sI78
VO=C1CCC(=O)N1O
p79
sI79
VO=C1CCC(=O)N1Cl
p80
sI80
VO=C1CCC(=O)N1Br
p81
sI81
VO=C1CCC(=O)N1I
p82
sI82
V[2H]C1=NC([2H])=C([2H])C([2H])=C1[2H]
p83
sI83
VCC1(C)OC(=O)CC(=O)O1
p84
sI84
VO=C1OC(=O)C2=CC=CC=C12
p85
sI85
VC1=CN=C(N2CCCC2)C=C1
p86
sI86
VCN1C(=O)CC2=CC=CC=C21
p87
sI87
VFC1=NC(F)=NC(F)=N1
p88
sI88
VClC1=NC(Cl)=NC(Cl)=N1
p89
sI89
VCC(C)(C)C1=CC=CC(C(C)(C)C)=N1
p90
sI90
VC1=CC2=CC=C3C=CC=NC3=C2N=C1
p91
sI91
VCC1=CC(C(C)(C)C)=NC(C(C)(C)C)=C1
p92
sI92
VO=C1C2=C(C=CC=C2)C(=O)N1Br
p93
sI93
VO=C(O)C1=CC=CC(C(=O)O)=N1
p94
sI94
VCN1C(=O)CC(=O)N(C)C1=O
p95
sI95
VO=C1C2=C(C=CC=C2)OC2=C1C=CC=C2
p96
sI96
VO=C1O[IH2](O)C2=CC=CC=C12
p97
sI97
VCCN(CC)C(=O)N1CCN(C)CC1
p98
sI98
VC1=CC=C2SC3=C(C=CC=C3)NC2=C1
p99
sI99
VCC1(C)C(=O)N(Cl)C(=O)N1Cl
p100
sI100
VCOC1=NC(Cl)=NC(OC)=N1
p101
sI101
VCC1=NC2=C3N=C(C)C=CC3=CC=C2C=C1
p102
sI102
VC1=CN=C(SSC2=NC=CC=C2)C=C1
p103
sI103
VNC(=O)C1=CN(CC2=CC=CC=C2)C=CC1
p104
sI104
VCC1=C(C)C2=CC=C3C(C)=C(C)C=NC3=C2N=C1
p105
sI105
VO=S1(=O)NS(=O)(=O)C2=C1C=CC=C2
p106
sI106
VO=C1N(Cl)C(=O)N(Cl)C(=O)N1Cl
p107
sI107
VCCOC(=O)C1=C(C)NC(C)=C(C(=O)OCC)C1
p108
sI108
VCC1=NC=C(COP(=O)(O)O)C(C=O)=C1O
p109
sI109
VO=C(/N=N/C(=O)N1CCCCC1)N1CCCCC1
p110
sI110
VCCCCOCCOCCOCC1=C(CCC)C=C2OCOC2=C1
p111
sI111
VC1=CC=C(C2=C3C=CC(=N3)C(C3=CC=CC=C3)=C3C=CC(=C(C4=CC=CC=C4)C4=NC(=C(C5=CC=CC=C5)C5=CC=C2N5)C=C4)N3)C=C1
p112
sI112
V[H]B(C(C)C(C)C)C(C)C(C)C
p113
sI113
VCCOC(=O)Cl
p114
sI114
VCC(C)(C)C(=O)Cl
p115
sI115
VO=C(O)C(=O)O
p116
sI116
V[SeH]C1=CC=CC=C1
p117
sI117
VO=C1CCCCC1
p118
sI118
VCC(=O)OC(C)=O
p119
sI119
VBrCC1=CC=CC=C1
p120
sI120
VCCOC(=O)CC(C)=O
p121
sI121
V[H][C@](O)(CNC)[C@@]([H])(O)[C@]([H])(O)[C@]([H])(O)CO
p122
sI122
VO=C1C(Cl)=C(Cl)C(=O)C(Cl)=C1Cl
p123
sI123
VCN(C)C1=CC=CC2=CC=CC(N(C)C)=C21
p124
sI124
VClC(C1=CC=CC=C1)(C1=CC=CC=C1)C1=CC=CC=C1
p125
sI125
VCC1=CC(C)=C(S(=O)(=O)ON)C(C)=C1
p126
sI126
VNC1CCCCC1
p127
sI127
V[H]C(=O)C1=CC=CC=C1
p128
sI128
VCC1=CC=C(N)C=C1
p129
sI129
VO=C(Cl)C1=CC=CC=C1
p130
sI130
VO=C=NC1=CC=CC=C1
p131
sI131
VOC1=C(O)C=CC=C1
p132
sI132
VCCOP(=O)(Cl)OCC
p133
sI133
VCC1(C)CC(=O)CC(=O)C1
p134
sI134
VC1=CC(N2CCCC2)=CC=N1
p135
sI135
VCC1=CC=C(S(N)(=O)=O)C=C1
p136
sI136
VCc1ccc(S(=O)(=O)O)cc1
p137
sI137
VCCN
p138
sI138
VCCI
p139
sI139
VOCCO
p140
sI140
VSCCS
p141
sI141
VCC(C)(C)S
p142
sI142
VCC1CCCCC1
p143
sI143
VC[O-].[Mg+2]
p144
sI144
VNC=O
p145
sI145
VCC(C)(C)[Si](C)(C)Cl
p146
sI146
VCCCCNCCCC
p147
sI147
VCC(N)=S
p148
sI148
VCC(=O)O
p149
sI149
VCS(C)=O
p150
sI150
VCOC(OC)N(C)C
p151
sI151
VC=CC(C)=O
p152
sI152
VN=C(N)N
p153
sI153
VCC(C)(C)C=O
p154
sI154
VCCC(=O)O
p155
sI155
VCCOC(C)=O
p156
sI156
VO=C(O)CS
p157
sI157
VCC(=O)C(=O)O
p158
sI158
VCS(=O)(=O)Cl
p159
sI159
V[Li]C1=CC=CC=C1
p160
sI160
VSC1=CC=CC=C1
p161
sI161
VN=C(N)S(=O)O
p162
sI162
VCc1cccc(O)c1
p163
sI163
VN#CC(C#N)=C(C#N)C#N
p164
sI164
VCOc1ccccc1
p165
sI165
VN#Cc1ccccc1
p166
sI166
VCCC(=O)OC(=O)CC
p167
sI167
VCN(C)c1ccccc1
p168
sI168
VCCOP(=S)(S)OCC
p169
sI169
VCCN=C=NCCCN(C)C
p170
sI170
VC[N+]1([O-])CCOCC1
p171
sI171
VO=[N+]([O-])c1ccccc1
p172
sI172
VCOC1=CC=C(O)C=C1
p173
sI173
VC[Si](C)(C)C(C(N)=O)[Si](C)(C)C
p174
sI174
VC1=CC=C(NC2=CC=CC=C2)C=C1
p175
sI175
VC1CCC2=NCCCN2CC1
p176
sI176
VCOC1=CC=C(C(=O)O)C=C1
p177
sI177
VO=C(Cl)OCC1=CC=CC=C1
p178
sI178
VO=C(O)C(O)C(O)C(=O)O
p179
sI179
VCC1=CC=C(S(=O)[O-])C=C1.[Na+]
p180
sI180
VO=P(Cl)(Cl)OC1=CC=CC=C1
p181
sI181
VO=C(OC(=O)C1=CC=CC=C1)C1=CC=CC=C1
p182
sI182
V[H]N1C(=O)N(Br)C(=O)N(Br)C1=O
p183
sI183
VO=N(=O)C1=C(S(=O)(=O)Cl)C=CC=C1
p184
sI184
VCN(C)N=NC1=C(C(N)=O)N=CN1
p185
sI185
VO=S(=O)(C1=CC=CC=C1)N1OC1C1=CC=CC=C1
p186
sI186
VCNC
p187
sI187
VC=CC=C
p188
sI188
VCC(C)N
p189
sI189
VNCCN
p190
sI190
VBrCCBr
p191
sI191
VCC(C)(C)N
p192
sI192
VCCNCC
p193
sI193
VCCCCN
p194
sI194
VNCCCN
p195
sI195
VCN(C)CCN
p196
sI196
VCCN(CC)CC
p197
sI197
VCC(C)NC(C)C
p198
sI198
VC[Si](C)(Cl)Cl
p199
sI199
VCN(C)CCCN
p200
sI200
VCCN(C(C)C)C(C)C
p201
sI201
VCC(=O)Cl
p202
sI202
VC=CCO
p203
sI203
VC=CCBr
p204
sI204
VOCCNCCO
p205
sI205
VNC(N)=S
p206
sI206
VCC(C)C=O
p207
sI207
VCN(C)C=O
p208
sI208
VCC(C)(O)C#N
p209
sI209
VC=CC(=O)OC
p210
sI210
VCC(=O)C(C)=O
p211
sI211
VCOC(=O)Cl
p212
sI212
VO=C(O)CCl
p213
sI213
VC#CC1=CC=CC=C1
p214
sI214
V[H]B1C2CCCC1CCC2
p215
sI215
VN#CC(Cl)(Cl)Cl
p216
sI216
VNC1=CC=CC=C1
p217
sI217
VClC1=CC=CC=C1
p218
sI218
V[H]P(=O)(OCC)OCC
p219
sI219
VCC1=CC=C(S)C=C1
p220
sI220
VO=C(O)/C=C\u005cC(=O)O
p221
sI221
VCC(=O)C1=CC=CC=C1
p222
sI222
VC1CCC(NC2CCCCC2)CC1
p223
sI223
VOC1=CC=C(O)C=C1
p224
sI224
VNC1=C(N)C=CC=C1
p225
sI225
VClC1=C(Cl)C=CC=C1
p226
sI226
VBr[Mg]C1=CC=CC=C1
p227
sI227
VC[Si](C)(C)N1C=CN=C1
p228
sI228
VCS(=O)(=O)N=N#N
p229
sI229
V[Li]C1=CC=CC2=CC=CC=C12
p230
sI230
VCCSC1=NN=NN1
p231
sI231
VO=S(=O)(Cl)C1=CC=CC=C1
p232
sI232
VCOC(=O)C#CC(=O)OC
p233
sI233
VO=N(=O)C1=NNC=N1
p234
sI234
VClN1N=NC2=C1C=CC=C2
p235
sI235
VCc1ccc(S(=O)(=O)Cl)cc1
p236
sI236
VO=C(OO)c1cccc(Cl)c1
p237
sI237
VCOS(=O)(=O)C1=CC=C(C)C=C1
p238
sI238
VS=C(N1C=CN=C1)N1C=CN=C1
p239
sI239
VO=C1C2=CC=CC=C2N=NN1O
p240
sI240
VCC1=CC=C(S(=O)(=O)NN)C=C1
p241
sI241
VC(=NC1CCCCC1)=NC1CCCCC1
p242
sI242
Vc1ccc(P(c2ccccc2)c2ccccc2)cc1
p243
sI243
VCC1=CC=C(S(=O)(=O)N2C=CN=C2)C=C1
p244
sI244
VC1COCCN2CCOCCOCCN(CCO1)CCOCCOCC2
p245
sI245
VNC1=CC=C(C=CC2=C(S(=O)(=O)O)C=C(N)C=C2)C(S(=O)(=O)O)=C1
p246
sI246
VCC(C)O
p247
sI247
VCNN
p248
sI248
VCCCC[O-].[Na+]
p249
sI249
VCOC(C)(C)OC
p250
sI250
VCC(C)=O
p251
sI251
VOCC(O)CO
p252
sI252
VC1=CCCC1
p253
sI253
VCCN(CC)[Si](C)(C)C
p254
sI254
VNC(N)=O
p255
sI255
VC[Si](C)(C)N[Si](C)(C)C
p256
sI256
VCc1ccccc1
p257
sI257
VCC(C)C(=O)O
p258
sI258
VNCC(=O)O
p259
sI259
VCOC(=O)OC
p260
sI260
VCOS(=O)(=O)OC
p261
sI261
VO=C(O)c1ccccc1
p262
sI262
VCSCCC(N)C(=O)O
p263
sI263
VCCN(CC)P(N(CC)CC)N(CC)CC
p264
sI264
VCCOC(=O)OC(=O)OCC
p265
sI265
VC1=CC=C(SSC2=CC=CC=C2)C=C1
p266
sI266
VS=P(C1=CC=CC=C1)(C1=CC=CC=C1)C1=CC=CC=C1
p267
sI267
VCC1=CC=C(P(C2=CC=C(C)C=C2)C2=CC=C(C)C=C2)C=C1
p268
sI268
VO=P(Cl)(OC1=CC=CC=C1)OC1=CC=CC=C1
p269
sI269
VNC1=NC(=O)N([C@H]2CC[C@@H](CO)O2)C=C1
p270
sI270
VNOC1=C(N(=O)=O)C=C(N(=O)=O)C=C1
p271
sI271
VCC1=CC=CC=C1P(C1=CC=CC=C1C)C1=C(C)C=CC=C1
p272
sI272
VC1=CC=C(P(CCCCP(C2=CC=CC=C2)C2=CC=CC=C2)C2=CC=CC=C2)C=C1
p273
sI273
VCCCC(=O)N1CCCN(C2=NC3=C(C=C(OC)C(OC)=C3)C(N)=N2)CC1
p274
sI274
VCN
p275
sI275
VC[Sn](C)(C)O
p276
sI276
VCC#N
p277
sI277
VNC(CO)(CO)CO
p278
sI278
VO=CC(=O)O
p279
sI279
VCC(=O)CC(C)=O
p280
sI280
VCNC1=CC=CC=C1
p281
sI281
VO=C(O)C(F)(F)F
p282
sI282
VCC1=CC=CC(N)=C1C
p283
sI283
VCOC1=CC=C(C(C)=O)C=C1
p284
sI284
VCCN(CC)C1=CC=CC=C1
p285
sI285
VCP(C1=CC=CC=C1)C1=CC=CC=C1
p286
sI286
VC1=CC=C([P-]C2=CC=CC=C2)C=C1.[Li+]
p287
sI287
VCCCC[Sn](CCCC)(CCCC)N=N#N
p288
sI288
VCCP(C1=CC=CC=C1)C1=CC=CC=C1
p289
sI289
VCCCC[Sn](CCCC)(CCCC)O[Sn](CCCC)(CCCC)CCCC
p290
sI290
VO=P(C1=CC=CC=C1)(C1=CC=CC=C1)C1=CC=CC=C1
p291
sI291
VO=C(OC(=O)C(F)(F)F)C(F)(F)F
p292
sI292
VN#CC1=C(C#N)C(=O)C(Cl)=C(Cl)C1=O
p293
sI293
VO=N(=O)C1=CC=CC(S(=O)(=O)[O-])=C1.[Na+]
p294
sI294
VC1=CC=C(P(CCP(C2=CC=CC=C2)C2=CC=CC=C2)C2=CC=CC=C2)C=C1
p295
sI295
VO=C(O[IH2](OC(=O)C(F)(F)F)C1=CC=CC=C1)C(F)(F)F
p296
sI296
VFC1=C(F)C(F)=C(P(C2=C(F)C(F)=C(F)C(F)=C2F)C2=C(F)C(F)=C(F)C(F)=C2F)C(F)=C1F
p297
sI297
VCCS
p298
sI298
VOCCS
p299
sI299
VCCC(C)O
p300
sI300
VCC(=O)S
p301
sI301
VN#CCC#N
p302
sI302
VO=C(O)CCS
p303
sI303
VCCCCCC(=O)O
p304
sI304
VCN(C)C(=O)N(C)C
p305
sI305
VO=C1C=CC(=O)C=C1
p306
sI306
VO=C(Cl)C(Cl)(Cl)Cl
p307
sI307
VCOS(=O)(=O)C(F)(F)F
p308
sI308
VO=C(O)C1=CC=CC=C1O
p309
sI309
VO=C(O)CC(O)(CC(=O)O)C(=O)O
p310
sI310
VCC(C)(C)C1=CC=NC(C2=NC=CC(C(C)(C)C)=C2)=C1
p311
sI311
VNN
p312
sI312
VCNCCNC
p313
sI313
VC1CCC2CCCCC2C1
p314
sI314
VCN(C)C(=O)Cl
p315
sI315
VCC(C)N=C=NC(C)C
p316
sI316
VNOS(=O)(=O)O
p317
sI317
VOCC1=CC=CC=C1
p318
sI318
VC1=NCCCN2CCCCC12
p319
sI319
VO=S(=O)(O)CCN1CCN(CCO)CC1
p320
sI320
VC#C
p321
sI321
VCC(C)[N-]C(C)C.[Li+]
p322
sI322
VC1=CCCCC1
p323
sI323
VC[C@H]1CC[C@@](C)(O)CC1
p324
sI324
VC=CC[Si](C)(C)C
p325
sI325
VCCOC=O
p326
sI326
VCCCC(=O)O
p327
sI327
S'[Na+].[O-]N=O'
p328
sI328
VCN(C)P(N(C)C)N(C)C
p329
sI329
VNCCC(=O)O
p330
sI330
VCC1=CC(C)=CC(C)=C1
p331
sI331
VOC1=CC=CC(O)=C1
p332
sI332
VO=C(O)C1=CC=CC(Cl)=C1
p333
sI333
VOC1=CC=CC(O)=C1O
p334
sI334
VO=C(O)C1=CC=CC(N(=O)=O)=C1
p335
sI335
VCCOC(=O)N=NC(=O)OCC
p336
sI336
VNC1=CC=C(S(=O)(=O)O)C=C1
p337
sI337
VCC(C)(C)C1=CC(C(C)(C)C)=NC(C(C)(C)C)=N1
p338
sI338
VClP(Cl)(C1=CC=CC=C1)(C1=CC=CC=C1)C1=CC=CC=C1
p339
sI339
VBrP(Br)(C1=CC=CC=C1)(C1=CC=CC=C1)C1=CC=CC=C1
p340
sI340
VFC1=CC=C(P(C2=CC=C(F)C=C2)C2=CC=C(F)C=C2)C=C1
p341
sI341
VFC(F)(F)C1=CC=C(P(C2=CC=C(C(F)(F)F)C=C2)C2=CC=C(C(F)(F)F)C=C2)C=C1
p342
sI342
VCN(C)C
p343
sI343
VCOP(OC)OC
p344
sI344
VCCOP(OCC)OCC
p345
sI345
VO=P(Cl)(Cl)Cl
p346
sI346
VO=P(Br)(Br)Br
p347
sI347
VCC(C)COC(=O)Cl
p348
sI348
VCCOC(=O)OCC
p349
sI349
VC[Si](C)(C)C=N#N
p350
sI350
VClC1=CC=C(Cl)C(Cl)=C1
p351
sI351
VClC1=CC=CC(Cl)=C1Cl
p352
sI352
VC1CCC(P(C2CCCCC2)C2CCCCC2)CC1
p353
sI353
VN#CC1(N=NC2(C#N)CCCCC2)CCCCC1
p354
sI354
VCCCCC
p355
sI355
VCI
p356
sI356
VCP(C)C
p357
sI357
VC[S-].[Na+]
p358
sI358
VBrCBr
p359
sI359
VCC[S-].[Na+]
p360
sI360
VCCCCO
p361
sI361
VOCCCO
p362
sI362
VCCP(CC)CC
p363
sI363
VClP(Cl)Cl
p364
sI364
VClC(Cl)C(Cl)Cl
p365
sI365
VOCCOCCO
p366
sI366
Vc1ccccc1
p367
sI367
VCOC(OC)OC
p368
sI368
VCCCCCCCCCCCCS
p369
sI369
VCC(=O)[S-].[K+]
p370
sI370
VCC(=O)NBr
p371
sI371
VCC(C)(C)C(=O)O
p372
sI372
VCC(C)CCON=O
p373
sI373
VCN(C)C(=N)N(C)C
p374
sI374
VOc1ccccc1
p375
sI375
VO=C(O)C(Cl)(Cl)Cl
p376
sI376
VO=C(Cl)OC(Cl)(Cl)Cl
p377
sI377
VCCCCC(CC)C(=O)[O-].[Na+]
p378
sI378
VOB(O)C1=CC=CC=C1
p379
sI379
VCS(=O)(=O)OS(C)(=O)=O
p380
sI380
VO=C(O)C1=CC=C(N(=O)=O)C=C1
p381
sI381
VO=P(Cl)(C1=CC=CC=C1)C1=CC=CC=C1
p382
sI382
VO=C1OI(=O)(O)C2=CC=CC=C12
p383
sI383
VC1=CC=C([SiH](C2=CC=CC=C2)C2=CC=CC=C2)C=C1
p384
sI384
VO=C(OOC(=O)C1=CC=CC=C1)C1=CC=CC=C1
p385
sI385
VOC1=CC=C2C=CC=CC2=C1C1=C(O)C=CC2=C1C=CC=C2
p386
sI386
VCOC1=CC=C(P2(=S)SP(=S)(C3=CC=C(OC)C=C3)S2)C=C1
p387
sI387
VSCCCS
p388
sI388
VCC(C)N(Cl)C(C)C
p389
sI389
VCC(N)=O
p390
sI390
VC=CC1=CC=CC=C1
p391
sI391
VCOP(=O)(OC)OC
p392
sI392
VN#CC1=CC=C(C#N)C=C1
p393
sI393
VO=C(OC1=CC=CC=C1)OC1=CC=CC=C1
p394
sI394
VO=C(OO)C1=CC=C(N(=O)=O)C=C1
p395
sI395
V[H][Na]
p396
sI396
VCl
p397
sI397
VCO
p398
sI398
VCCCO
p399
sI399
VCCCN
p400
sI400
VCC[Mg]I
p401
sI401
VCCCC[Mg]Br
p402
sI402
VCCOCCO
p403
sI403
VCC[SiH](CC)CC
p404
sI404
VCC(C)(C)OO
p405
sI405
VClSSCl
p406
sI406
VClC(Cl)(Cl)Cl
p407
sI407
VCCCN(CCC)CCC
p408
sI408
VO=C(Cl)Cl
p409
sI409
V[K+].[N-]=C=O
p410
sI410
VCC(=O)OO
p411
sI411
VS=P(Cl)(Cl)Cl
p412
sI412
VO=C(O)C(F)F
p413
sI413
VO=S(=O)(O)Cl
p414
sI414
VO=C(O)C(Cl)Cl
p415
sI415
VCCN(CC)C(F)(F)C(F)Cl
p416
sI416
VS1SSSSSSS1
p417
sI417
VCN(C)CC1=CC=CC=C1
p418
sI418
VS=P(=S)SP(=S)=S
p419
sI419
VCN(C)P(=O)(N(C)C)N(C)C
p420
sI420
VO=C([O-])C1=CC=CC=C1.[Na+]
p421
sI421
VNS(=O)(=O)C1=CC=CC=C1
p422
sI422
VN#N=NS(=O)(=O)C1=CC=C(N(=O)=O)C=C1
p423
sI423
VC1CCC2OCCOCCOC3CCCCC3OCCOCCOC2C1
p424
sI424
VC1=CC2=C(C=C1)OCCOCCOC1=C(C=CC=C1)OCCOCCO2
p425
sI425
VC[Mg]I
p426
sI426
V[Li]CCCC
p427
sI427
VC=O
p428
sI428
VC[Si](C)(C)Cl
p429
sI429
VCN(C)CCO
p430
sI430
VCOCCOC
p431
sI431
VCl[AlH3](Cl)Cl
p432
sI432
VO=CO
p433
sI433
VCC(C)CNCC(C)C
p434
sI434
VCC=NO
p435
sI435
V[H]N=N#N
p436
sI436
V[H]P(=O)(O)O
p437
sI437
VO=S(Cl)Cl
p438
sI438
VC1=CCCC=CCC1
p439
sI439
V[N-]=[N+]=[N-].[Na+]
p440
sI440
VCCN(=O)=O
p441
sI441
VC=COC(C)=O
p442
sI442
VCC(=O)C(C)(C)C
p443
sI443
VCC(C)(C)ON=O
p444
sI444
VCC(O)C(=O)O
p445
sI445
VO=S(=O)(Cl)Cl
p446
sI446
V[O-][Cl+3]([O-])([O-])O
p447
sI447
VCC1=CC=C(S(=O)O)C=C1
p448
sI448
VO=C(OO)c1ccccc1
p449
sI449
VO=S([O-])S(=O)[O-].[Na+]
p450
sI450
VOn1nnc2cccnc21
p451
sI451
VN#N=NC1=CC=C(N(=O)=O)C=C1
p452
sI452
VO=C(C1=NC=CN1)C1=NC=CN1
p453
sI453
VCC1=CC=C(S(=O)(=O)N=N#N)C=C1
p454
sI454
VO=C1C2=CC=CC=C2S(=O)(=O)N1Br
p455
sI455
VCC(C)C1=CC(C(C)C)=C(S(=O)(=O)Cl)C(C(C)C)=C1
p456
sI456
VCC(C)C1=CC=CC=C1
p457
sI457
VBrC1=CC=CC=C1
p458
sI458
VCl[Se]C1=CC=CC=C1
p459
sI459
VO=C=NS(=O)(=O)Cl
p460
sI460
VO=C(c1ccccc1)c1ccccc1
p461
sI461
VO=N(=O)C1=CC=C(O)C(N(=O)=O)=C1
p462
sI462
VO=N(=O)C1=CC=C(O)C=C1
p463
sI463
VCC1=CC=CC2=C1N(=O)=CC=C2
p464
sI464
VO=C(O)c1ccccc1C(=O)OO
p465
sI465
VO=C(O)C1=CC=CC=C1C1=C2C=C(Br)C(=O)C(Br)=C2OC2=C(Br)C(O)=C(Br)C=C21
p466
sI466
VCC1=CC=C(O)C=C1
p467
sI467
VCC(=N[Si](C)(C)C)O[Si](C)(C)C
p468
sI468
VO=C1C(=O)C(Cl)=C(Cl)C(Cl)=C1Cl
p469
sI469
VReaxys Name borane-THF
p470
sI470
VOC1=CC(O)=CC(O)=C1
p471
sI471
VCC(C)(C)OOC(=O)C1=CC=CC=C1
p472
sI472
VCCC(C)(C)O
p473
sI473
VCC=C(C)C
p474
sI474
VC[Si](Cl)(Cl)Cl
p475
sI475
VCl[Si](Cl)(Cl)Cl
p476
sI476
VO=C(Cl)C(=O)Cl
p477
sI477
VC1COCCOCCOCCO1
p478
sI478
Vc1ccc(Oc2ccccc2)cc1
p479
sI479
VO=P(O)(OC1=CC=CC=C1)OC1=CC=CC=C1
p480
sI480
VFC(F)(F)C(OS(OC(C1=CC=CC=C1)(C(F)(F)F)C(F)(F)F)(C1=CC=CC=C1)C1=CC=CC=C1)(C1=CC=CC=C1)C(F)(F)F
p481
sI481
VC1=CC=C2C=CC=CC2=C1
p482
sI482
VCCO[Si](OCC)(OCC)OCC
p483
sI483
VCC1(C)CCCC(C)(C)N1[O]
p484
sI484
VCC[N+](CC)(CC)S(=O)(=O)[N-]C(=O)OC
p485
sI485
VCS(=O)(=O)O
p486
sI486
VIC1=CC=CC=C1
p487
sI487
VC1=CC=C2CCCCC2=C1
p488
sI488
VC1=COC(P(C2=CC=CO2)C2=CC=CO2)=C1
p489
sI489
VReaxys Name borane-pyridine complex
p490
sI490
VC1COCCOCCOCCOCCO1
p491
sI491
VC1COCCOCCOCCOCCOCCO1
p492
sI492
VCC(C)(C)C1=CC(C(C)(C)C)=NC(C(C)(C)C)=C1
p493
sI493
VC[SiH](C)Cl
p494
sI494
VC[Si](C)(C)[Si](C)(C)C
p495
sI495
VC1=CC=C(C2=CC=CC=C2)C=C1
p496
sI496
S'B.Cc1ccccn1'
p497
sI497
VO=C1C2=CC=CC=C2C2=C1C=CC=C2
p498
sI498
VO=S(=O)([O-])[N+]1=CC=CC=C1
p499
sI499
VCSC
p500
sI500
VCCCS
p501
sI501
VICI
p502
sI502
VCCN(C)C
p503
sI503
VCCOCC
p504
sI504
VCCSCC
p505
sI505
VCC(C)(C)OCl
p506
sI506
VC=CC(C)(C)C
p507
sI507
VN#CBr
p508
sI508
VCC(=O)Br
p509
sI509
VReaxys Name chloroform-d1
p510
sI510
VCOB(OC)OC
p511
sI511
VC[N+](=O)[O-]
p512
sI512
VC[Si](C)(C)S[Si](C)(C)C
p513
sI513
VO=COO
p514
sI514
VCCCCN(CCCC)CCCC
p515
sI515
VCC(C)ON=O
p516
sI516
VCCOB(OCC)OCC
p517
sI517
VOCCN(CCO)CCO
p518
sI518
VClC(Cl)(Br)C(Cl)(Cl)Br
p519
sI519
VCCON=O
p520
sI520
VCO[Si](OC)(OC)OC
p521
sI521
VCN(C)CC(=O)O
p522
sI522
VCCCCON=O
p523
sI523
VCCCCCON=O
p524
sI524
VCC(C)OB(OC(C)C)OC(C)C
p525
sI525
VCC(=O)OOC(C)(C)C
p526
sI526
VC[Si](C)(C)P([Si](C)(C)C)[Si](C)(C)C
p527
sI527
VCCOP(=O)(O)O
p528
sI528
VCCOP(=O)(OCC)OCC
p529
sI529
VCN(C)C(=C(N(C)C)N(C)C)N(C)C
p530
sI530
VO=C(C(Cl)(Cl)Cl)C(Cl)(Cl)Cl
p531
sI531
VCC(C)(C#N)N=NC(C)(C)C#N
p532
sI532
VCC(C)(C)OOC(=O)C(=O)OOC(C)(C)C
p533
sI533
VO=C(O)CCP(CCC(=O)O)CCC(=O)O
p534
sI534
VO=C(O)CN(CCN(CC(=O)O)CC(=O)O)CC(=O)O
p535
sI535
VC
p536
sI536
VCCO
p537
sI537
VC#N
p538
sI538
VCC(C)CCO
p539
sI539
V[H][C@@](O)(CS)[C@@]([H])(O)CS
p540
sI540
V[H][C@](N)(CCCCN)C(=O)O
p541
sI541
V[H][C@@](O)([C@@]([H])(O)C=O)[C@]([H])(O)[C@]([H])(O)CO
p542
sI542
VO=C(O)C(O)C(O)C(=O)O
p543
sI543
VO=C(O)C(S)C(S)C(=O)O
p544
sI544
V[H][C@](N)(CCCNC(=N)N)C(=O)O
p545
sI545
V[H][C@@](O)(C(=O)O)[C@@]([H])(O)[C@]([H])(O)[C@@]([H])(O)CO
p546
sI546
V[H][C@](N)(CCC(=O)N[C@@]([H])(CS)C(=O)NCC(=O)O)C(=O)O
p547
sI547
VC=C
p548
sI548
VCCCCCC
p549
sI549
VCCCCCCC
p550
sI550
VC[SiH](C)C
p551
sI551
VClCCl
p552
sI552
VCB(C)Br
p553
sI553
VICCI
p554
sI554
VCC(C)CO
p555
sI555
VCC[SiH](C)C
p556
sI556
VCC(C)(C)Br
p557
sI557
VCCCCS
p558
sI558
VCOC(C)(C)C
p559
sI559
V[2H]OC
p560
sI560
VCCCCCO
p561
sI561
VClC(Cl)Cl
p562
sI562
VBrC(Br)Br
p563
sI563
VCOCCO
p564
sI564
VC[Si](C)(C)Br
p565
sI565
VC[Si](C)(C)I
p566
sI566
V[2H]OCC
p567
sI567
VCC(C)OC(C)C
p568
sI568
VCCB(CC)CC
p569
sI569
VCO[Si](C)(C)C
p570
sI570
VCCN(CC)C(C)C
p571
sI571
VClC(Cl)(Cl)Br
p572
sI572
VN#CN
p573
sI573
VCCCCOCCCC
p574
sI574
VBrC(Br)(Br)Br
p575
sI575
VCN(C)CCN(C)C
p576
sI576
VCCCCCCCCS
p577
sI577
VOCC(F)(F)F
p578
sI578
V[2H]OC([2H])([2H])[2H]
p579
sI579
VC[SiH](C)O[SiH](C)C
p580
sI580
VCC(C)[SiH](C(C)C)C(C)C
p581
sI581
VCCO[SiH](C)OCC
p582
sI582
VCN(C)(C)=O
p583
sI583
VCC(C)(C)OOC(C)(C)C
p584
sI584
VCOCCOCCOC
p585
sI585
VC[Si](C)(C)O[Si](C)(C)C
p586
sI586
VC[Si](C)(C)C#N
p587
sI587
VCC(=O)N(C)C
p588
sI588
VCC(C)C(N)=O
p589
sI589
VCS(C)(=O)=O
p590
sI590
VCCCCB(CCCC)CCCC
p591
sI591
VCCCCP(CCCC)CCCC
p592
sI592
VCCCCCCCCCC(C)(C)S
p593
sI593
VCC(C)(C)P(C(C)(C)C)C(C)(C)C
p594
sI594
VCCO[SiH](OCC)OCC
p595
sI595
VCC(=O)NO
p596
sI596
V[2H]OC(C)=O
p597
sI597
VNCCN(CCN)CCN
p598
sI598
VClCCN(CCCl)CCCl
p599
sI599
VC[Si](C)(C)OO[Si](C)(C)C
p600
sI600
VClC(Cl)(Cl)C(Cl)(Cl)Cl
p601
sI601
VFC(F)(Br)C(F)(F)Br
p602
sI602
VCC(C)N(=O)=O
p603
sI603
VCS(N)(=O)=O
p604
sI604
VCN(C)CCN(C)CCN(C)C
p605
sI605
VCCS(=O)(=O)O
p606
sI606
VO=C(Br)C(=O)Br
p607
sI607
VCN=C(NC)N(C)C
p608
sI608
VCN(C)C(=S)N(C)C
p609
sI609
VCC(Cl)OC(=O)Cl
p610
sI610
V[2H]OC(=O)C([2H])([2H])[2H]
p611
sI611
VCC(=O)ON(=O)=O
p612
sI612
VO=C(O)CC(=O)O
p613
sI613
VCC(C)OC(=O)OC(C)C
p614
sI614
VCC(=O)OOC(C)=O
p615
sI615
VO=C(O)CCC(=O)O
p616
sI616
V[2H]OC(=O)C(F)(F)F
p617
sI617
VCCOP(=O)(C#N)OCC
p618
sI618
VCCCCCCCCP(CCCCCCCC)CCCCCCCC
p619
sI619
VO=C(O)CNCCNCC(=O)O
p620
sI620
VO=C(OC(Cl)(Cl)Cl)OC(Cl)(Cl)Cl
p621
sI621
VO=N(=O)C(N(=O)=O)(N(=O)=O)N(=O)=O
p622
sI622
VCCCCCCCCCCCC(=O)OOC(=O)CCCCCCCCCCC
p623
sI623
VO=C(O)CN(CCN(CC(=O)O)CC(=O)O)CCN(CC(=O)O)CC(=O)O
p624
sI624
VO=S(=O)(O)C(F)(F)F
p625
sI625
VO=S(=O)(Cl)C(F)(F)F
p626
sI626
VO=S(=O)(F)C(F)(F)C(F)(F)C(F)(F)C(F)(F)F
p627
sI627
VO=S(=O)(OS(=O)(=O)C(F)(F)F)C(F)(F)F
p628
sI628
V[C]=NC(C)(C)C
p629
sI629
VCl[Si](C1=CC=CC=C1)(C1=CC=CC=C1)C1=CC=CC=C1
p630
sI630
VO=P12OP3(=O)OP(=O)(O1)OP(=O)(O2)O3
p631
sI631
VReaxys Name DPPH radical
p632
sI632
S'[H]'
p633
sI633
VC[O-]
p634
sI634
VCCOP(O)OCC
p635
sI635
VOC(C(F)(F)F)C(F)(F)F
p636
sI636
VCC(C)(C)C1=CC=CC(C(C)(C)C)=C1O
p637
sI637
VC1=CC=C([As](C2=CC=CC=C2)C2=CC=CC=C2)C=C1
p638
sI638
V[H]C(S)[C@@]([H])(O)[C@]([H])(O)CS
p639
sI639
VCC(C)=C(Cl)N(C)C
p640
sI640
VCCN(CC)S(F)(F)F
p641
sI641
VO=C(O)C(=O)Cl
p642
sI642
VO=C(O)C1=CC=CC=C1I
p643
sI643
VC[Si](C)(C)OS(=O)(=O)C(F)(F)F
p644
sI644
VN#CC1=CC=C(C#N)C2=C1C=CC=C2
p645
sI645
VCC(=O)O[IH2](OC(C)=O)C1=CC=CC=C1
p646
sI646
VC1CCCCC1
p647
sI647
VCOC(Cl)Cl
p648
sI648
VO=C=O
p649
sI649
V[C]=O
p650
sI650
S'Reaxys ID 1900511'
p651
sI651
VC1=CCC=CC1
p652
sI652
VCN(C)S(F)(F)F
p653
sI653
VNC(N)=S(=O)=O
p654
sI654
VCC1=CC=C(C(C)C)C=C1
p655
sI655
VC[Si](C)(C)N=[N+]=[N-]
p656
sI656
VCSc1ccccc1
p657
sI657
VCC1=CC(C)=C(C)C(C)=C1C
p658
sI658
VC1=CC=C2C(=C1)C=CC1=C2C=CC=C1
p659
sI659
VC1=CC=C2C=C3C=CC=CC3=CC2=C1
p660
sI660
VO=C(OO)C(F)(F)F
p661
sI661
VFC(F)(F)C1=CC=CC=C1
p662
sI662
VC1=CC=C(SC2=CC=CC=C2)C=C1
p663
sI663
VCC(C)(OO)C1=CC=CC=C1
p664
sI664
VO=S(C1=CC=CC=C1)C1=CC=CC=C1
p665
sI665
VN#CC1=C(Cl)C=CC=C1Cl
p666
sI666
VCN(C)C(=O)N=NC(=O)N(C)C
p667
sI667
VCC(C)(C)OC(=O)OC(=O)OC(C)(C)C
p668
sI668
VCC(C)(C)OC(=O)N=NC(=O)OC(C)(C)C
p669
sI669
VCOC(=O)C1=C(C(=O)OC)C=CC=C1
p670
sI670
VCC1=CC(C(C)(C)C)=C(O)C(C(C)(C)C)=C1
p671
sI671
VCC(C)OC(=O)N=NC(=O)OC(C)C
p672
sI672
VOC1=C(F)C(F)=C(F)C(F)=C1F
p673
sI673
VO=C(O)C1=CC(N(=O)=O)=CC(N(=O)=O)=C1
p674
sI674
VCC(C)(C)C1=CC(=C2C=C(C(C)(C)C)C(=O)C(C(C)(C)C)=C2)C=C(C(C)(C)C)C1=O
p675
sI675
VReaxys Name dimethylsulfide borane complex
p676
sI676
VCN(C)C1CCCCC1
p677
sI677
VO=P(O)(O)O
p678
sI678
VO=[IH2]c1ccccc1
p679
sI679
S'Reaxys ID 1923630'
p680
sI680
VC[Si](C)(C)[SiH]([Si](C)(C)C)[Si](C)(C)C
p681
sI681
VCN(C(=O)C(F)(F)F)[Si](C)(C)C
p682
sI682
VCC(C)(C)N=S(Cl)C1=CC=CC=C1
p683
sI683
VO=P(Cl)(Cl)OP(=O)(Cl)Cl
p684
sI684
VO=S(=O)(O)C1=CC2=CC=CC=C2C=C1
p685
sI685
VC1=CC=C(B(C2=CC=CC=C2)C2=CC=CC=C2)C=C1
p686
sI686
VCCCCB(CCCC)OS(=O)(=O)C(F)(F)F
p687
sI687
VN#N=NS(=O)(=O)C1=CC=C(C(=O)O)C=C1
p688
sI688
VO=P1(O)OC2=C(C3=C(C=CC=C3)C=C2)C2=C(C=CC3=C2C=CC=C3)O1
p689
sI689
VC[Si](C)(C)ON
p690
sI690
VClP(Cl)(Cl)(Cl)Cl
p691
sI691
VO=S(=O)(O)O
p692
sI692
S'Reaxys ID 2040563'
p693
sI693
VCC(C)(C)ON=NOC(C)(C)C
p694
sI694
VCC1(C)C(=S)C(C)(C)C1=S
p695
sI695
VCl[IH2](Cl)c1ccccc1
p696
sI696
VCC(C)(C)C1=CC=C(O)C(O)=C1
p697
sI697
VC[Si](C)(C)OP(O[Si](C)(C)C)O[Si](C)(C)C
p698
sI698
VCC(C)(C#N)/N=N/C(C)(C)C#N
p699
sI699
VC1=CC=C([Se][Se]C2=CC=CC=C2)C=C1
p700
sI700
VN#N=NS(=O)(=O)C(F)(F)F
p701
sI701
VO=C1C(Br)=CC(Br)(Br)C=C1Br
p702
sI702
VO=C(Cl)C1=C(Cl)C=C(Cl)C=C1Cl
p703
sI703
V[H]P(=O)(OC1=CC=CC=C1)OC1=CC=CC=C1
p704
sI704
VCOC(OC)(C(=O)C1=CC=CC=C1)C1=CC=CC=C1
p705
sI705
VO=C(O)C1=C(F)C(F)=C(F)C(F)=C1F
p706
sI706
VN#N=NP(=O)(OC1=CC=CC=C1)OC1=CC=CC=C1
p707
sI707
VCC1=CC(SC2=CC(C)=C(O)C(C(C)(C)C)=C2)=CC(C(C)(C)C)=C1O
p708
sI708
VCC(C)NC1CCCCC1
p709
sI709
VCN(C1CCCCC1)C1CCCCC1
p710
sI710
V[C]=NC(C)(C)CC(C)(C)C
p711
sI711
VCC(C)(C)C1=CC=C(C2=CC=C(C(C)(C)C)C=C2)C=C1
p712
sI712
VCOP(=S)(NC(C)C)OC1=C(Cl)C=C(Cl)C=C1
p713
sI713
VO=N(=O)C1=CC=C(S(=O)(=O)O)C(N(=O)=O)=C1
p714
sI714
VCC1=CC=C(S(=O)(=O)O[IH2](O)C2=CC=CC=C2)C=C1
p715
sI715
VCC1=CC=C(S(=O)(=O)NNS(=O)(=O)C2=CC=C(C)C=C2)C=C1
p716
sI716
VFS(F)(F)F
p717
sI717
VO=S(=O)(F)Cl
p718
sI718
VC[SiH](C)C1=CC=CC=C1
p719
sI719
V[H][C@@](C)(N)C1=CC=CC=C1
p720
sI720
V[H][C@](C)(CC1=CC=CC=C1)NC
p721
sI721
VCC1=C(S(=O)(=O)O)C=CC=C1
p722
sI722
VCN(C)C(=O)/N=N/C(=O)N(C)C
p723
sI723
VC1=CC=C(NC2=CC3=CC=CC=C3C=C2)C=C1
p724
sI724
VO=N(=O)C1=CC=C(S(=O)(=O)O)C=C1
p725
sI725
VCC1(C)C2CCC1(CS(=O)(=O)O)C(=O)C2
p726
sI726
VCCCCCCCCCCCCC1=CC=C(S(=O)(=O)O)C=C1
p727
sI727
VCC1=CC=C(S(=O)(=O)OS(=O)(=O)C2=CC=C(C)C=C2)C=C1
p728
sI728
VClP1(Cl)=NP(Cl)(Cl)=NP(Cl)(Cl)=NP(Cl)(Cl)=N1
p729
sI729
VCC1=CC=C([IH2](F)F)C=C1
p730
sI730
VO=C(N=NC(=O)OCC1=CC=CC=C1)OCC1=CC=CC=C1
p731
sI731
VO=[Se](O[Se](=O)C1=CC=CC=C1)C1=CC=CC=C1
p732
sI732
S'CC[O+](CC)[B-](F)(F)F'
p733
sI733
VCN(C)C(=NC(C)(C)C)N(C)C
p734
sI734
VCC(C)(C)[Si](C)(C)OS(=O)(=O)C(F)(F)F
p735
sI735
VCC(C)C1=CC(C(C)C)=C(S(=O)(=O)N=N#N)C(C(C)C)=C1
p736
sI736
S'Reaxys ID 2408727'
p737
sI737
VCC1=CC=C(S(=O)(=O)N(Br)Br)C=C1
p738
sI738
VN=N
p739
sI739
V[H][Si](Cl)(Cl)Cl
p740
sI740
VO=C(O)C1=C(I(=O)=O)C=CC=C1
p741
sI741
VCCCP(=O)(O)OP(=O)(O)CCC
p742
sI742
VNOP(=O)(C1=CC=CC=C1)C1=CC=CC=C1
p743
sI743
VCC(C)(C)C(=O)O[IH2](OC(=O)C(C)(C)C)C1=CC=CC=C1
p744
sI744
VC1CN[C@H](CN2CCCC2)C1
p745
sI745
VNNS(=O)(=O)C1=CC=CC=C1N(=O)=O
p746
sI746
VO=[PH](O)C1=CC=CC=C1
p747
sI747
VO=P(O)(C1=CC=CC=C1)C1=CC=CC=C1
p748
sI748
VN#N=NP(=O)(C1=CC=CC=C1)C1=CC=CC=C1
p749
sI749
VCC1(C)[C@@H]2CC[C@@]1(CS(=O)(=O)O)C(=O)C2
p750
sI750
VCC1(C)[C@H]2CC[C@]1(CS(=O)(=O)O)C(=O)C2
p751
sI751
VCOC1=CC=C(P(C2=CC=C(OC)C=C2)C2=CC=C(OC)C=C2)C=C1
p752
sI752
VC1=CC=C(P(CCCP(C2=CC=CC=C2)C2=CC=CC=C2)C2=CC=CC=C2)C=C1
p753
sI753
VFC1=C(F)C(F)=C(B(C2=C(F)C(F)=C(F)C(F)=C2F)C2=C(F)C(F)=C(F)C(F)=C2F)C(F)=C1F
p754
sI754
V[SiH3]C1=CC=CC=C1
p755
sI755
V[H]B(C1CCCCC1)C1CCCCC1
p756
sI756
VC1=CC=C([SiH2]C2=CC=CC=C2)C=C1
p757
sI757
VC1=CC=C(P(C2=CC=CC=C2)C2=CC=CC=C2P(C2=CC=CC=C2)C2=CC=CC=C2)C=C1
p758
sI758
VNS(=O)(=O)O
p759
sI759
VNC(C1CCCCC1)C1CCCCC1
p760
sI760
VO=S(=O)(C1=CC=CC(S(=O)(=O)N(Cl)Cl)=C1)N(Cl)Cl
p761
sI761
VO=S(=O)(C1=CC=CC(S(=O)(=O)N(Br)Br)=C1)N(Br)Br
p762
sI762
VCC1(C)[C@@H]2CC[C@@]1(CS(=O)(=O)O)C(=O)C2
p763
sI763
VClB(C1CCCCC1)C1CCCCC1
p764
sI764
VCC1=C(C(=O)OC(=O)C2=C(C)C=CC=C2N(=O)=O)C(N(=O)=O)=CC=C1
p765
sI765
S'[Cl-].[K+]'
p766
sI766
S'[Cl-].[Cs+]'
p767
sI767
VF
p768
sI768
V[H]S[H]
p769
sI769
VB
p770
sI770
V[H][O+]([H])[H]
p771
sI771
VClSCl
p772
sI772
VN#N
p773
sI773
VCC(C)(C)[Mg]Br
p774
sI774
VCC(C)C[Mg]Br
p775
sI775
VFB(F)F
p776
sI776
V[Li]C#N
p777
sI777
VCCCC[Mg]CCCC
p778
sI778
VC[Mg]Br
p779
sI779
VO=S=O
p780
sI780
VCC[Mg]Br
p781
sI781
VO=S(=O)=O
p782
sI782
VCC(C)(C)[Mg]Cl
p783
sI783
VCS(=O)C[Na]
p784
sI784
V[O]Cl=O
p785
sI785
VCCCC[Sn](Cl)(Cl)CCCC
p786
sI786
VC[Si](C)(C)C[Mg]Cl
p787
sI787
VCCCC[Sn](Cl)(CCCC)CCCC
p788
sI788
VNS(=O)(=O)Cl
p789
sI789
VCl[Si](Cl)(Cl)[Si](Cl)(Cl)Cl
p790
sI790
VCC(C)O[Ti](C)(OC(C)C)OC(C)C
p791
sI791
VCl[Mg]C1=CC=CC=C1
p792
sI792
S'Cl.NO'
p793
sI793
VC1=CC=C([SnH](C2=CC=CC=C2)C2=CC=CC=C2)C=C1
p794
sI794
S'[NH4+].[Cl-]'
p795
sI795
VC[O-].[K+]
p796
sI796
VC[O-].[Li+]
p797
sI797
VCC[O-].[K+]
p798
sI798
VC[Cu-]C.[Li+]
p799
sI799
VN#C[Na]
p800
sI800
VCCC[O-].[Na+]
p801
sI801
VCC(C)(C)[O-].[K+]
p802
sI802
VC[N+](C)(C)C.[F-]
p803
sI803
VC[N+](C)(C)C.[H][O-]
p804
sI804
VCC[N-]CC.[Li+]
p805
sI805
VC[Si](C)(C)[O-].[K+]
p806
sI806
VCC[N+](CC)(CC)CC.[I-]
p807
sI807
VC[N+](C)(C)CCO.[Cl-]
p808
sI808
VCC[N+](CC)(CC)CC.[Cl-]
p809
sI809
VCC[N+](CC)(CC)CC.[Br-]
p810
sI810
VCC(=O)O.N
p811
sI811
VC[N+](C)=CCl.[Cl-]
p812
sI812
VCCC(=O)[O-].[Na+]
p813
sI813
VCC1(C)CCCC(C)(C)[N-]1.[Li+]
p814
sI814
VCC1=CC=C(S(=O)(=O)O)C=C1.[H]O[H]
p815
sI815
VOCl(=O)(=O)=O.[Na+]
p816
sI816
V[K+].[O-]C1=CC=CC=C1
p817
sI817
VCCCC[N+](CCCC)(CCCC)CCCC.[F-]
p818
sI818
VCCCC[N+](CCCC)(CCCC)CCCC.[Br-]
p819
sI819
VCCCC[N+](CCCC)(CCCC)CCCC.[Cl-]
p820
sI820
VCCCC[N+](CCCC)(CCCC)CCCC.[H][O-]
p821
sI821
S'Reaxys ID 3572194'
p822
sI822
VC[N+]1=C(Cl)C=CC=C1.[I-]
p823
sI823
VCC[N+](CC)(CC)CC1=CC=CC=C1.[Cl-]
p824
sI824
VCN(C)[S+](N(C)C)N(C)C.C[Si-](C)(C)(F)F
p825
sI825
S'CCCC[N+](CCCC)(CCCC)CCCC.F[B-](F)(F)F'
p826
sI826
VCCN(CC)[S+](N(CC)CC)N(CC)CC.C[Si-](C)(C)(F)F
p827
sI827
VCCCC[N+](CCCC)(CCCC)CCCC.O=Cl(=O)(=O)[O-]
p828
sI828
VC[P+](OC1=CC=CC=C1)(OC1=CC=CC=C1)OC1=CC=CC=C1.[I-]
p829
sI829
VNC(=O)C1=CC=C[N+]([C@@H]2O[C@H](COP(=O)([O-])OP(=O)(O)OC[C@H]3O[C@@H](N4C=NC5=C4N=CN=C5N)[C@H](O)[C@@H]3O)[C@@H](O)[C@H]2O)=C1
p830
sI830
VC1=CC2=C(C=C1)N(O[P+](N1CCCC1)(N1CCCC1)N1CCCC1)N=N2.FP(F)(F)(F)(F)F
p831
sI831
VO=S(=O)([O-])C1=CC=CC(P(C2=CC(S(=O)(=O)[O-])=CC=C2)C2=CC(S(=O)(=O)[O-])=CC=C2)=C1.[Na+]
p832
sI832
S'F[B-](F)(F)F.c1ccc(cc1)c2cc([o+]c(c2)c3ccccc3)c4ccccc4'
p833
sI833
VO=C([O-])C1=CC=CC=C1C1=C2C=C(Br)C(=O)C(Br)=C2OC2=C(Br)C([O-])=C(Br)C=C21.[Na+]
p834
sI834
VN
p835
sI835
VO
p836
sI836
V[Ar]
p837
sI837
VBr
p838
sI838
VI
p839
sI839
V[Li]C
p840
sI840
VBr
p841
sI841
V[OH-]
p842
sI842
VCl
p843
sI843
VI
p844
sI844
V[H][H]
p845
sI845
VNO
p846
sI846
VOO
p847
sI847
VBrBr
p848
sI848
VII
p849
sI849
VC[Zn]C
p850
sI850
VC[AlH3](C)C
p851
sI851
S'O([2H])[2H]'
p852
sI852
VC[Mg]Cl
p853
sI853
V[Li]C(C)(C)C
p854
sI854
V[Li]C(C)CC
p855
sI855
VCC(C)[Mg]Cl
p856
sI856
VCC(C)[Mg]Br
p857
sI857
VO=O
p858
sI858
VCCCC[Mg]Cl
p859
sI859
VCC[AlH3](CC)CC
p860
sI860
V[N]=O
p861
sI861
VO=[N+]([O-])O
p862
sI862
VCC(C)C[AlH3](CC(C)C)CC(C)C
p863
sI863
VCCCC[SnH](CCCC)CCCC
p864
sI864
VN#N=[N-]
p865
sI865
VCN.[H]Cl
p866
sI866
VCNC.[H]Cl
p867
sI867
VCON.[H]Cl
p868
sI868
VCCNCC.[H]Cl
p869
sI869
VCC[Si](CC)(CC)OS(=O)(=O)C(F)(F)F
p870
sI870
VO=CO.[H]N([H])[H]
p871
sI871
VCC(C)[Si](OS(=O)(=O)C(F)(F)F)(C(C)C)C(C)C
p872
sI872
VN=C(N)N.[H]Cl
p873
sI873
VC[O-].[Na+]
p874
sI874
VOC1=C(C2=C(O)C=CC3=C2C=CC=C3)C2=C(C=CC=C2)C=C1
p875
sI875
VOC1=C(C2=C(O)C=CC3=C2C=CC=C3)C2=C(C=CC=C2)C=C1
p876
sI876
VN#C[K]
p877
sI877
VCC[O-].[Na+]
p878
sI878
VNC1=CC=CC=C1.[H]Cl
p879
sI879
VCC(C)[O-].[Na+]
p880
sI880
VCC1=CC(=C(C#N)C#N)C=C(/C=C/C2=CC=C(N(C)C)C=C2)O1
p881
sI881
VN#C[S-].[K+]
p882
sI882
VO=C[O-].[Na+]
p883
sI883
VN#CS.[H]N([H])[H]
p884
sI884
VCC(=O)[O-].[K+]
p885
sI885
VCC(=O)[O-].[Cs+]
p886
sI886
VCC(=O)[O-].[Na+]
p887
sI887
VC[S+](C)(C)=O.[I-]
p888
sI888
VOCl(=O)(=O)=O.[Li+]
p889
sI889
VCCOC(=S)[S-].[K+]
p890
sI890
VO=C([O-])CCl.[Na+]
p891
sI891
V[Na+].[O-]C1=CC=CC=C1
p892
sI892
V[Na+].[S-]C1=CC=CC=C1
p893
sI893
S'C[O+](C)C.F[B-](F)(F)F'
p894
sI894
V[Na+].[Se-]C1=CC=CC=C1
p895
sI895
VCCCCCCCCCCCC[N+](C)(C)C.[Br-]
p896
sI896
VO=C([O-])C(F)(F)F.[Na+]
p897
sI897
S'CC[O+](CC)CC.F[B-](F)(F)F'
p898
sI898
VCCCCCCCCCCCCCCCC[N+](C)(C)C.[Br-]
p899
sI899
VO=[S-](=O)C1=CC=CC=C1.[Na+]
p900
sI900
VCCCC[N+](CCCC)(CCCC)CCCC.[C-]#N
p901
sI901
VCCCCCCCCCCCCOS(=O)(=O)[O-].[Na+]
p902
sI902
VO=S(=O)([N-]Cl)C1=CC=CC=C1.[Na+]
p903
sI903
VCC1=CC=C(S(=O)(=O)[N-]Cl)C=C1.[Na+]
p904
sI904
VCC(=O)[O-].CCCC[N+](CCCC)(CCCC)CCCC
p905
sI905
VC[P+](C1=CC=CC=C1)(C1=CC=CC=C1)C1=CC=CC=C1.[Br-]
p906
sI906
VCCCC[N+](CCCC)(CCCC)CCCC.O=S(=O)([O-])O
p907
sI907
VCN(C)C1=CC=C2N=C3C=CC(N(C)C)=CC3=[S+]C2=C1.[Cl-]
p908
sI908
V[H]P([H])[H]
p909
sI909
V[15NH3]
p910
sI910
V[H]P(O)O
p911
sI911
VOB(O)O
p912
sI912
VF[Sb](F)F
p913
sI913
VCl[Sb](Cl)Cl
p914
sI914
VC[Sn](C)(C)[Sn](C)(C)C
p915
sI915
V[H]P([H])(=O)O
p916
sI916
VF[Sb](F)(F)(F)F
p917
sI917
VO=S(=O)(O)F
p918
sI918
VCCCC[Sn](CCCC)(CCCC)OC
p919
sI919
VCC1(C(F)(F)F)OO1
p920
sI920
VCCCC[Sn](CCCC)(CCCC)[Sn](CCCC)(CCCC)CCCC
p921
sI921
VC[Si](C)(C)N=C(O[Si](C)(C)C)C(F)(F)F
p922
sI922
VCP(C)C
p923
sI923
VCO.FB(F)F
p924
sI924
VC1CCNCC1.[H]Cl
p925
sI925
VC1=CC=NC=C1.[H]Cl
p926
sI926
VCC(C)[O-].[K+]
p927
sI927
VC[N+](C)(C)C.[Br-]
p928
sI928
VO=C[O-].[K+]
p929
sI929
VCCN(CC)CC.O=C(O)O
p930
sI930
S'[NH4+].[O-]C=O'
p931
sI931
VO=C(O)O.[H]N([H])[H]
p932
sI932
VC[Si](C)(C)[N-][Si](C)(C)C.[Na+]
p933
sI933
VO=S([O-])CO.[Na+]
p934
sI934
VReaxys Name pyridinium hydrobromide perbromide
p935
sI935
VC1=CC=C(P(C2=CC=CC=C2)C2=CC=CC=C2)C=C1.[H]Br
p936
sI936
VCN1C=[N+](C)C2=CC=CC=C21.[I-]
p937
sI937
VCC1=CC=C(S(=O)(=O)[O-])C=C1.[Na+]
p938
sI938
VC1=CC=NC=C1.O=S(=O)(O)C(F)(F)F
p939
sI939
VCC[N+](CC)(CC)CC.O=Cl(=O)(=O)[O-]
p940
sI940
S'Reaxys ID 3640706'
p941
sI941
VCC[N+]1=C(C2=CC=CC=C2)C2=C(C=CC(N)=C2)C2=C1C=C(N)C=C2.[Br-]
p942
sI942
VO=C([O-])C1=C(C2=C3C=C(I)C(=O)C(I)=C3OC3=C2C=C(I)C([O-])=C3I)C(Cl)=C(Cl)C(Cl)=C1Cl.[Na+]
p943
sI943
V[NaH]
p944
sI944
V[KH]
p945
sI945
VCC[Mg]Cl
p946
sI946
VCC1(C)OO1
p947
sI947
VO=S(=O)([O-])[O-]
p948
sI948
VO=C1OCCN1P(=O)(Cl)N1CCOC1=O
p949
sI949
V[H][C@]1([C@@H](O)C2=CC=NC3=C2C=C(OC)C=C3)C[C@@H]2CCN1C[C@@H]2C=C
p950
sI950
VO=S(=O)([O-])CCS.[Na+]
p951
sI951
VCCCCCCCCCCCCCCCC[N+](C)(C)C.[Cl-]
p952
sI952
S'F[B-](F)(F)F.c1ccc(cc1)C(c2ccccc2)c3ccccc3'
p953
sI953
S'O=[P]12O[P]3(=O)O[P](=O)(O1)O[P](=O)(O2)O3'
p954
sI954
S'Reaxys ID 3659912'
p955
sI955
S'S=[P]12S[P]3(=S)S[P](=S)(S1)S[P](=S)(S2)S3'
p956
sI956
S'Br[Pb]Br'
p957
sI957
VOCl
p958
sI958
VOBr
p959
sI959
VIB(I)I
p960
sI960
VFI(F)(F)(F)F
p961
sI961
VO=[Se](Cl)Cl
p962
sI962
VC[Sn](C)(Cl)Cl
p963
sI963
VCSC.[H]B([H])[H]
p964
sI964
VC1=CC=NC=C1.[H]B([H])[H]
p965
sI965
VNC(CO)(CO)CO.[H]Cl
p966
sI966
VC[AlH3](Cl)Cl
p967
sI967
VC1=CNC=N1.[H]Cl
p968
sI968
VCC[O-].[Mg+2]
p969
sI969
VCC[O-].[Tl+]
p970
sI970
VCC[O-].[AlH3+3]
p971
sI971
VC[AlH3](C)Cl
p972
sI972
VCC[AlH3](Cl)Cl
p973
sI973
VClC1=CC=NC=C1.[H]Cl
p974
sI974
VNC(N)=O.[H]OO[H]
p975
sI975
VCN(C)C.O=S(=O)=O
p976
sI976
VCC[AlH3](I)CC
p977
sI977
VCC[AlH3](Cl)CC
p978
sI978
VCC(=O)O.CCN(CC)CC
p979
sI979
VCC(=O)[O-].[Mn+2]
p980
sI980
VCC(=O)[O-].[Pb+2]
p981
sI981
VCC(=O)[O-].[Tl+3]
p982
sI982
VCC(=O)[O-].[Tl+]
p983
sI983
V[H][B-](OC)(OC)OC.[Na+]
p984
sI984
VC1=CC=NC=C1.O=S(=O)=O
p985
sI985
VCC(=O)O.NN
p986
sI986
VO=C([O-])C1=CC=CC=C1.[K+]
p987
sI987
VC1=CC=NC=C1.O=Cl(=O)(=O)O
p988
sI988
VO=C([O-])N=NC(=O)[O-].[K+]
p989
sI989
VCC(=O)[O-].[H]O[H].[Na+]
p990
sI990
VCC(=O)[O-].[H]O[H].[Mn+3]
p991
sI991
VC1=CC=NC=C1.O=C(O)C(F)(F)F
p992
sI992
VCC[N+](CC)(CC)CC1=CC=CC=C1.[Br-]
p993
sI993
VCC1=C(CCO)SC=[N+]1C.[I-]
p994
sI994
S'[Br-].[Br-].[Br-].CCCC[N+](CCCC)(CCCC)CCCC.CCCC[N+](CCCC)(CCCC)CCCC.CCCC[N+](CCCC)(CCCC)CCCC'
p995
sI995
VCC[N+](CC)(CC)CC.FP(F)(F)(F)(F)F
p996
sI996
VCCCC[N+](CCCC)(CCCC)CCCC.[N-]=[N+]=[N-]
p997
sI997
VCc1ccc(S(=O)(=O)O)cc1.c1ccncc1
p998
sI998
V[H][C@](O)(CO)[C@@]1([H])OC(=O)C([O-])=C1O.[Na+]
p999
sI999
VCCCC[N+](CCCC)(CCCC)CC1=CC=CC=C1.[Cl-]
p1000
sI1000
VCCCC[N+](CCCC)(CCCC)CC1=CC=CC=C1.[Br-]
p1001
sI1001
VCC1=C(CCO)SC=[N+]1CC1=CC=CC=C1.[Cl-]
p1002
sI1002
VO=S(=O)([O-])C1=CC(P(C2=CC=CC=C2)C2=CC=CC=C2)=CC=C1.[Na+]
p1003
sI1003
VO=C([O-])CN(CCN(CC(=O)[O-])CC(=O)O)CC(=O)O.[Na+]
p1004
sI1004
VCC1=NC(N)=C(C[N+]2=CSC(CCO)=C2C)C=N1.[Cl-].[H]Cl
p1005
sI1005
VCC1=NC=C(C[N+]2=CSC(CCOP(=O)(O)OP(=O)(O)O)=C2C)C(N)=N1.[Cl-]
p1006
sI1006
VNC(=O)C1=CC=C[N+]([C@@H]2O[C@H](COP(=O)([O-])OP(=O)(O)OC[C@H]3O[C@@H](N4C=NC5=C4N=CN=C5N)[C@H](OP(=O)(O)O)[C@@H]3O)[C@@H](O)[C@H]2O)=C1
p1007
sI1007
S'O=[Mg]'
p1008
sI1008
S'O=[Si]=O'
p1009
sI1009
S'O=[Pb]'
p1010
sI1010
S'O=[BiH2+]'
p1011
sI1011
VCl[SnH2]Cl
p1012
sI1012
S'[H]'
p1013
sI1013
V[2H]Cl
p1014
sI1014
VClCl
p1015
sI1015
VClI
p1016
sI1016
VBrI
p1017
sI1017
VClB(Cl)Cl
p1018
sI1018
VBrB(Br)Br
p1019
sI1019
VBrP(Br)Br
p1020
sI1020
VIP(I)I
p1021
sI1021
VCl[As](Cl)Cl
p1022
sI1022
VO=NO
p1023
sI1023
VF[Si](F)(F)F
p1024
sI1024
VCl[Se](Cl)(Cl)Cl
p1025
sI1025
VCl[Te](Cl)(Cl)Cl
p1026
sI1026
VO=S(O)O
p1027
sI1027
VO=[Se](O)O
p1028
sI1028
VBrP(Br)(Br)(Br)Br
p1029
sI1029
VO=I(=O)O
p1030
sI1030
VCCCC[Sb](CCCC)CCCC
p1031
sI1031
VO=[As](O)(O)O
p1032
sI1032
VO=[Cr](=O)(O)O
p1033
sI1033
VO=S([O-])[O-]
p1034
sI1034
VO=N(=O)N(=O)=O
p1035
sI1035
VCN(C)C.[H]Cl
p1036
sI1036
VCCN(CC)CC.[H]Cl
p1037
sI1037
VO=S(=O)([O-])OOS(=O)(=O)[O-]
p1038
sI1038
VCCOCC.FB(F)F
p1039
sI1039
VCC[O-].[Li+]
p1040
sI1040
VCC(C)[O-].[AlH3+3]
p1041
sI1041
VC[N+](C)(C)C.[Cl-]
p1042
sI1042
VN#C[Se-].[K+]
p1043
sI1043
VC[Si](C)(C)[O-].[Na+]
p1044
sI1044
VCC[N+](CC)(CC)CC.[H][O-]
p1045
sI1045
VC[N+](C)(C)CCO.[H][O-]
p1046
sI1046
VC1CCNCC1.CC(=O)O
p1047
sI1047
VNC(=O)O.[H]N([H])[H]
p1048
sI1048
VCCCC[N+](CCCC)(CCCC)CCCC.[I-]
p1049
sI1049
VC[N+](C)(C)C1=CC=CC=C1.[Br-]
p1050
sI1050
VC[N+](C)(C)CC1=CC=CC=C1.[Br-]
p1051
sI1051
VC[N+](C)(C)CC1=CC=CC=C1.[Cl-]
p1052
sI1052
VC[N+](C)(C)CC1=CC=CC=C1.[H][O-]
p1053
sI1053
S'CC[N+](CC)(CC)CC.F[B-](F)(F)F'
p1054
sI1054
S'[Br-].[Br-].[Br-].C[N+](C)(C)c1ccccc1.C[N+](C)(C)c2ccccc2.C[N+](C)(C)c3ccccc3'
p1055
sI1055
VO=C([O-])CC(O)(CC(=O)[O-])C(=O)[O-].[Na+]
p1056
sI1056
VCCCC[N+](CCCC)(CCCC)CCCC.O=N(=O)[O-]
p1057
sI1057
VC1=CC=C2N=CC=CC2=C1.O=[Cr](=O)(O)O[Cr](=O)(=O)O
p1058
sI1058
V[LiH]
p1059
sI1059
V[H][SeH]
p1060
sI1060
S'[H-].[K+]'
p1061
sI1061
VO=P(O)(O)OP(=O)(O)O
p1062
sI1062
VC[Si](C)(C)[N-][Si](C)(C)C.[SnH4+2]
p1063
sI1063
VC1=CC=NC=C1.O=[Cr](=O)=O
p1064
sI1064
VCCC(C)(C)[O-].[Na+]
p1065
sI1065
VCC(=O)[O-].[Fe+2]
p1066
sI1066
VO=C([O-])[O-].[Li+]
p1067
sI1067
VC[Si](C)(C)[N-][Si](C)(C)C.[K+]
p1068
sI1068
V[H][B-](C(C)CC)(C(C)CC)C(C)CC.[Li+]
p1069
sI1069
VCC(C)(C)C(=O)[O-].[K+]
p1070
sI1070
V[Na]C1=CC=CC2=C1C=CC=C2
p1071
sI1071
VCN1CCN(C)[C+]1Cl.[Cl-]
p1072
sI1072
VC[N+](C)(C)CC1=CC=CC=C1.[F-]
p1073
sI1073
VCCCCCCCC[N+](C)(CCCCCCCC)CCCCCCCC.[Cl-]
p1074
sI1074
VCNC.O=C(O)COC1=C(Cl)C=C(Cl)C=C1
p1075
sI1075
V[H][B-](OC(C)=O)(OC(C)=O)OC(C)=O.[Na+]
p1076
sI1076
VCCCC[N+](CCCC)(CCCC)CCCC.FP(F)(F)(F)(F)F
p1077
sI1077
VCl[P+](C1=CC=CC=C1)(C1=CC=CC=C1)C1=CC=CC=C1.[Cl-]
p1078
sI1078
S'CCCCC(CC)(CO)CO'
p1079
sI1079
VC1=CC=C(P(=[N+]=P(C2=CC=CC=C2)(C2=CC=CC=C2)C2=CC=CC=C2)(C2=CC=CC=C2)C2=CC=CC=C2)C=C1.[Cl-]
p1080
sI1080
VCCCCC(CC)COC(=O)CC(C(=O)OCC(CC)CCCC)S(=O)(=O)[O-].[Na+]
p1081
sI1081
VNC(=O)C1=C[N+]([C@@H]2O[C@H](COP(=O)(O)OP(=O)(O)OC[C@H]3O[C@@H](N4C=NC5=C4N=CN=C5N)[C@H](O)[C@@H]3O)[C@@H](O)[C@H]2O)=CC=C1
p1082
sI1082
VO=C([O-])C1=C(C2=C3C=C(I)C(=O)C(I)=C3OC3=C2C=C(I)C([O-])=C3I)C(Cl)=C(Cl)C(Cl)=C1Cl.[K+]
p1083
sI1083
S'[H-].[Li+]'
p1084
sI1084
S'[H-].[Na+]'
p1085
sI1085
VCC(C)C[AlH4]CC(C)C
p1086
sI1086
VCCCC[Sn](=O)CCCC
p1087
sI1087
V[2H][Sn](CCCC)(CCCC)CCCC
p1088
sI1088
VCC(C)(C)N.[H]B([H])[H]
p1089
sI1089
VCCCC[Sn](CCCC)(OC(C)=O)OC(C)=O
p1090
sI1090
VCCCC[Sn](Cl)(CCCC)O[Sn](Cl)(CCCC)CCCC
p1091
sI1091
VC[O-].[Ba+2]
p1092
sI1092
VCCC[S-].[Li+]
p1093
sI1093
VCC(C)(C)[O-].[AlH3+3]
p1094
sI1094
VCCC(C)(C)[O-].[K+]
p1095
sI1095
VC[S+](C)Br.[Br-]
p1096
sI1096
VCCN(CC)CC.O=CO
p1097
sI1097
V[H][B-](CC)(CC)CC.[Li+]
p1098
sI1098
V[BH3-]C#N.[Na+]
p1099
sI1099
VCC[N+](CC)(CC)CC.[F-]
p1100
sI1100
VO=C([O-])O.[Na+]
p1101
sI1101
V[CH2-]S(C)=O.[Na+]
p1102
sI1102
VO=C([O-])[O-].[Na+]
p1103
sI1103
V[H][B-](C(C)CC)(C(C)CC)C(C)CC.[K+]
p1104
sI1104
VCCCCCCCCCCCC(=O)O[Sn](CCCC)(CCCC)OC(=O)CCCCCCCCCCC
p1105
sI1105
VCC(C)[N-]C1CCCCC1.[Li+]
p1106
sI1106
VCC(C)(C)C(=O)[O-].[Na+]
p1107
sI1107
VCN1C=C[N+](C)=C1.[I-]
p1108
sI1108
VCCCC[P+](CCCC)(CCCC)CCCC.[Br-]
p1109
sI1109
VC1CCC([N-]C2CCCCC2)CC1.[Li+]
p1110
sI1110
VCCCCCC[N+](CCCCCC)(CCCCCC)CCCCCC.[I-]
p1111
sI1111
VCC[N+]1=CSC(CCO)=C1C.[Br-]
p1112
sI1112
VCC[N+](CC)(CC)CC.O=I(=O)(=O)[O-]
p1113
sI1113
VCCCCCCCCCCCCCCCC[P+](CCCC)(CCCC)CCCC.[Br-]
p1114
sI1114
VCl[SiH2]Cl
p1115
sI1115
VCN(C)P(=NC(C)(C)C)(N(C)C)N(C)C
p1116
sI1116
VO=C(O)O.[H]N([H])[H]
p1117
sI1117
VOS(O)(=O)=O.[Mg+2]
p1118
sI1118
VReaxys Name tetra-N-butylammonium borohydride
p1119
sI1119
VC1=CC=NC=C1.O=[Cr](=O)(O)F
p1120
sI1120
VCC(C)(C)C1=CC=C(C2=CC=C(C(C)(C)C)C=C2)C=C1.[Li+]
p1121
sI1121
V[CaH2]
p1122
sI1122
VCOP(=O)(OC)C(=N#N)C(C)=O
p1123
sI1123
VO=C([O-])[O-].[K+]
p1124
sI1124
S'Reaxys ID 4284739'
p1125
sI1125
VCN(C)[P+](On1nnc2ccccc21)(N(C)C)N(C)C.F[P](F)(F)(F)(F)F
p1126
sI1126
VCC(C)(C1=N[C@@H](C(C)(C)C)CO1)C1=N[C@@H](C(C)(C)C)CO1
p1127
sI1127
VC=C[C@H]1CN2CC[C@H]1C[C@H]2[C@H](O)C1=CC=NC2=CC=C(OC)C=C21
p1128
sI1128
VO=S(=O)([O-])C(F)(F)F.[Li+]
p1129
sI1129
VCOC1=CC=CC(OC)=C1P(C1=C(OC)C=CC=C1OC)C1=C(OC)C=CC=C1OC
p1130
sI1130
VCC1=CC=C(S(=O)(=O)[O-])C=C1.CC[N+](CC)(CC)CC
p1131
sI1131
VCC1=CC(C)=C(S(=O)(=O)N2C=NC(N(=O)=O)=N2)C(C)=C1
p1132
sI1132
S'[NH4+].OC([O-])=O'
p1133
sI1133
VReaxys Name N,N,N',N'-tetramethyl-O-(N-succinimidyl)uronium tetrafluoroborate
p1134
sI1134
VC
p1135
sI1135
VFF
p1136
sI1136
VNS(N)(=O)=O
p1137
sI1137
V[H]Cl.[H]N([H])[H]
p1138
sI1138
V[2H]OS(=O)(=O)O[2H]
p1139
sI1139
VO=C([O-])O.[K+]
p1140
sI1140
VO=C([O-])[O-].[Cs+]
p1141
sI1141
VCC(=O)OI1(OC(C)=O)(OC(C)=O)OC(=O)c2ccccc21
p1142
sI1142
VC1=CC=C2C=CC=CC2=C1.[Li+]
p1143
sI1143
S'Reaxys ID 4579869'
p1144
sI1144
VC1=CC=C2C=CC=CC2=C1.[Li+]
p1145
sI1145
VCCCC[N+]1=CN(C)C=C1.[Br-]
p1146
sI1146
VC[N+](C)(C)CC1=CC=CC=C1.ClICl
p1147
sI1147
VC[N+](C)(C)CC1=CC=CC=C1.ClI(Cl)(Cl)Cl
p1148
sI1148
VCCCC[N+](CCCC)(CCCC)CCCC.O=I(=O)(=O)[O-]
p1149
sI1149
S'CN(C)C(ON1C=CC=CC1=O)=[N+](C)C.F[B-](F)(F)F'
p1150
sI1150
VO=C([O-])C(O)C(O)C(=O)[O-].[K+].[Na+]
p1151
sI1151
VCCCC[N+](CCCC)(CCCC)CCCC.OP(O)(=O)OP(O)(=O)O
p1152
sI1152
S'CN(C)C(On1nnc2ccccc12)=[N+](C)C.F[B-](F)(F)F'
p1153
sI1153
VCCCC[N+](CCCC)(CCCC)CCCC.OS(O)(=O)=O.[H+]
p1154
sI1154
VReaxys Name tris(p-bromophenylammoniumyl) hexachloroantimonate
p1155
sI1155
VCN(C)[C+](ON1N=NC2=CC=CC=C21)N(C)C.FP(F)(F)(F)(F)F
p1156
sI1156
VC[N+](C)(C)CC1=CC=CC=C1.C[O-]
p1157
sI1157
VC1=CC=NC=C1.[H]F
p1158
sI1158
VO=S(=O)(NS(=O)(=O)C(F)(F)F)C(F)(F)F
p1159
sI1159
VCC1=CC(C)=[N+](F)C(C)=C1.O=S(=O)([O-])C(F)(F)F
p1160
sI1160
VO=C([O-])C1=C(C(=O)OO)C=CC=C1.[Mg+2]
p1161
sI1161
VO=S(=O)([O-])C(F)(F)F.[Ca+2]
p1162
sI1162
VCCCCN(CCCC)CCCC.O=P(O)(O)OP(=O)(O)O
p1163
sI1163
VC1=CC=C(P(C2=CC=CC=C2)C2=C(C3=C(P(C4=CC=CC=C4)C4=CC=CC=C4)C=CC4=C3C=CC=C4)C3=C(C=CC=C3)C=C2)C=C1
p1164
sI1164
VS
p1165
sI1165
S'[O-][O+]=O'
p1166
sI1166
V[H]Br.[H]N([H])[H]
p1167
sI1167
VO=N(=O)ON(=O)=O
p1168
sI1168
V[K+].[SH-]
p1169
sI1169
VON(=O)=O.[Hg+2]
p1170
sI1170
V[H]N([H])[H].[H]O[H]
p1171
sI1171
VNN.O
p1172
sI1172
V[H][N-][H].[K+]
p1173
sI1173
V[H][N-][H].[Na+]
p1174
sI1174
VO=S([O-])O.[Na+]
p1175
sI1175
VOS(=O)(=O)S.[Na+]
p1176
sI1176
S'O=[Pb]=O'
p1177
sI1177
S'[F-].[Na+]'
p1178
sI1178
V[MgH2]
p1179
sI1179
VCCCP1(=O)OP(=O)(CCC)OP(=O)(CCC)O1
p1180
sI1180
V[Na+].[O]S([O])(=O)=O
p1181
sI1181
VN#C[Cu-]C1=CC=CS1.[Li+]
p1182
sI1182
VCCCC[N+](CCCC)(CCCC)CCCC.[F-].[H]F
p1183
sI1183
VCCCC[N+](CCCC)(CCCC)CCCC.[F-].[H]O[H]
p1184
sI1184
VCS[S+](C)C.O=S(=O)([O-])C(F)(F)F
p1185
sI1185
VCCCC[N+](CCCC)(CCCC)CCCC.O=S(=O)([O-])[O-]
p1186
sI1186
VCCCC[N+](CCCC)(CCCC)CCCC.O=P([O-])(O)O
p1187
sI1187
VCCCC[N+](CCCC)(CCCC)CCCC.OS(=O)(=O)OO
p1188
sI1188
VCCCC[N+](CCCC)(CCCC)CCCC.O=S(=O)([O-])OOS(=O)(=O)[O-]
p1189
sI1189
VO=S(=O)(O)C1=CC2=C(O)C(=C1)CC1=C(O)C(=CC(S(=O)(=O)O)=C1)CC1=C(O)C(=CC(S(=O)(=O)O)=C1)CC1=C(O)C(=CC(S(=O)(=O)O)=C1)C2
p1190
sI1190
VO=NCl
p1191
sI1191
VCC(C)OC(=O)/N=N/C(=O)OC(C)C
p1192
sI1192
VCC1(C)C2CCC1(CS(=O)(=O)O)C(=O)C2
p1193
sI1193
V[H][C@@]1([C@H](O)C2=CC=NC3=C2C=C(O)C=C3)C[C@@H]2CCN1C[C@@H]2C=C
p1194
sI1194
VC1=CC=C(P(C2=CC=CC=C2)C2=C(C3=C(P(C4=CC=CC=C4)C4=CC=CC=C4)C=CC4=C3C=CC=C4)C3=C(C=CC=C3)C=C2)C=C1
p1195
sI1195
VC1=CC=C(P(C2=CC=CC=C2)C2=C(C3=C(P(C4=CC=CC=C4)C4=CC=CC=C4)C=CC4=C3C=CC=C4)C3=C(C=CC=C3)C=C2)C=C1
p1196
sI1196
S'[Li+].[F-]'
p1197
sI1197
VO=I(=O)(=O)O
p1198
sI1198
VO=S(=O)(C1=CC=CC=C1)N(F)S(=O)(=O)C1=CC=CC=C1
p1199
sI1199
S'Br[Br-]Br.c1cc[nH+]cc1'
p1200
sI1200
VBrBr.C1=CC=C(P(C2=CC=CC=C2)C2=CC=CC=C2)C=C1
p1201
sI1201
S'F[B-](F)(F)F.F[B-](F)(F)F.F[N+]12CC[N+](CCl)(CC1)CC2'
p1202
sI1202
VCC(=O)[IH2](C(C)=O)C1=CC=CC=C1
p1203
sI1203
VCC(=O)O.NCCN
p1204
sI1204
VCC1=CC(C)=C(N2[C]N(C3=C(C)C=C(C)C=C3C)C=C2)C(C)=C1
p1205
sI1205
V[H][C@](O)(CO)[C@@]1([H])OC(=O)C(O)=C1[O-].[Na+]
p1206
sI1206
S'CC[n+]1ccn(C)c1.F[B-](F)(F)F'
p1207
sI1207
VCC1=CC(C)=C(N2C=C[N+](C3=C(C)C=C(C)C=C3C)=C2)C(C)=C1.[Cl-]
p1208
sI1208
VFC(F)(F)C1=CC([B-](C2=CC(C(F)(F)F)=CC(C(F)(F)F)=C2)(C2=CC(C(F)(F)F)=CC(C(F)(F)F)=C2)C2=CC(C(F)(F)F)=CC(C(F)(F)F)=C2)=CC(C(F)(F)F)=C1.[Na+]
p1209
sI1209
VO=I(O)(O)(O)(O)O
p1210
sI1210
VCCN(CC)CC.F
p1211
sI1211
VCCN(CC)P1(=NC(C)(C)C)N(C)CCCN1C
p1212
sI1212
VCCN=C=NCCCN(C)C.CI
p1213
sI1213
VON1N=NC2=CC=CC=C21.[H]O[H]
p1214
sI1214
VCC(=O)O.CN(C)C(=N)N(C)C
p1215
sI1215
VCCN=C=NCCCN(C)C.Cl
p1216
sI1216
VCN(C)P(=NP(=NC(C)(C)C)(N=P(N(C)C)(N(C)C)N(C)C)N=P(N(C)C)(N(C)C)N(C)C)(N(C)C)N(C)C
p1217
sI1217
V[H][C@](O)(C(=O)[O-])[C@@]([H])(O)C(=O)[O-].[K+].[Na+]
p1218
sI1218
VCC(C)(C)O[AlH4-](OC(C)(C)C)OC(C)(C)C.[Li+]
p1219
sI1219
VO=S(OS(=O)C(F)(F)F)C(F)(F)F
p1220
sI1220
VO=C([O-])C1=CC=CC=C1C(=O)O[O-].[Mg+2]
p1221
sI1221
V[H][C@]1([C@@H](OC2=NN=C(O[C@@H](C3=CC=NC4=C3C=C(OC)C=C4)[C@@]3([H])C[C@@H]4CCN3C[C@@H]4CC)C3=C2C=CC=C3)C2=CC=NC3=C2C=C(OC)C=C3)C[C@@H]2CCN1C[C@@H]2CC
p1222
sI1222
VO
p1223
sI1223
S'[K+].[O-][N+]([O-])=O'
p1224
sI1224
VCN1CCCN2CCCN=C12
p1225
sI1225
VCC(C)(C)C(=O)[O-].[Cs+]
p1226
sI1226
S'[H-].[H-].[Na+].COCCO[Al+]OCCOC'
p1227
sI1227
VCC1=CC=C(S(=O)(=O)O)C=C1.CN(C)C1=CC=NC=C1
p1228
sI1228
S'[F-].[Cs+]'
p1229
sI1229
VCCCC[N+](CCCC)(CCCC)CCCC.O=N[O-]
p1230
sI1230
V[O]N(=O)=O
p1231
sI1231
V[Se]=P1(C2=CC=CC=C2)[Se]P(=[Se])(C2=CC=CC=C2)[Se]1
p1232
sI1232
VCCCC[N+]1=CN(C)C=C1.[Cl-]
p1233
sI1233
V[2H][2H]
p1234
sI1234
VCN(C)C(=NN=N#N)N(C)C
p1235
sI1235
VOP(O)(O)=O.[Na+]
p1236
sI1236
VO=S(=O)([N-]S(=O)(=O)C(F)(F)F)C(F)(F)F.[Li+]
p1237
sI1237
S'F[B-](F)(F)F.C1CCC(CC1)P(C2CCCCC2)C3CCCCC3'
p1238
sI1238
VC[C@H]1[C@H](B(Cl)[C@@H]2C[C@@H]3C[C@H]([C@H]2C)C3(C)C)C[C@@H]2C[C@H]1C2(C)C
p1239
sI1239
VBr[P+](N1CCCC1)(N1CCCC1)N1CCCC1.FP(F)(F)(F)(F)F
p1240
sI1240
S'Reaxys ID 6907951'
p1241
sI1241
S'[Br-].[Br-].[Br-].C[N+](C)(C)Cc1ccccc1.C[N+](C)(C)Cc2ccccc2.C[N+](C)(C)Cc3ccccc3'
p1242
sI1242
VN#N=N[IH2]1OC(=O)C2=C1C=CC=C2
p1243
sI1243
VO=C([O-])[O-].[Ba+2]
p1244
sI1244
VO=[Cr](=O)(O)Cl.c1ccncc1
p1245
sI1245
VO=S(=O)([O-])C(F)(F)F.[Mg+2]
p1246
sI1246
VC1=CC=C2N=CC=CC2=C1.O=[Cr](=O)(O)F
p1247
sI1247
VCC1(C)C2=C(OC3=C1C=CC=C3P(C1=CC=CC=C1)C1=CC=CC=C1)C(P(C1=CC=CC=C1)C1=CC=CC=C1)=CC=C2
p1248
sI1248
VO=C1OCCN1P(=O)(OC1=CC=CC=C1)OC1=CC=CC=C1
p1249
sI1249
VC1=CC=C(NC2=CC=CC=C2)C=C1.O=S(=O)(O)C(F)(F)F
p1250
sI1250
VCN(C)[C+](F)N(C)C.FP(F)(F)(F)(F)F
p1251
sI1251
VNC1=CC(S(=O)(=O)[O-])=C2C=CC3=C(S(=O)(=O)[O-])C=C(S(=O)(=O)[O-])C4=C3C2=C1C=C4.[Na+]
p1252
sI1252
V[AlH6]
p1253
sI1253
V[H][C@]12C[C@H](B(Cl)[C@H]3C[C@@]4([H])C[C@@]([H])([C@@H]3C)C4(C)C)[C@@H](C)[C@]([H])(C1)C2(C)C
p1254
sI1254
VCCN=P(N=P(N(C)C)(N(C)C)N(C)C)(N(C)C)N(C)C
p1255
sI1255
VCCOP(=O)(OCC)ON1N=NC2=C(C=CC=C2)C1=O
p1256
sI1256
V[H][C@]1([C@@H](OC2=C3C(=O)C4=C(C=CC=C4)C(=O)C3=C(O[C@@H](C3=CC=NC4=C3C=C(OC)C=C4)[C@@]3([H])C[C@@H]4CCN3C[C@@H]4CC)C=C2)C2=CC=NC3=C2C=C(OC)C=C3)C[C@@H]2CCN1C[C@@H]2CC
p1257
sI1257
VCC1(C)OB(B2OC(C)(C)C(C)(C)O2)OC1(C)C
p1258
sI1258
VC1=CC=C(P(C2=CC=CC=C2)C2=CC=CC=C2OC2=CC=CC=C2P(C2=CC=CC=C2)C2=CC=CC=C2)C=C1
p1259
sI1259
VCN(C)C(N1N=N(=O)C2=C1C=CC=N2)=[N+](C)C.FP(F)(F)(F)(F)F
p1260
sI1260
VCC(C)NC(C)C.O=C(O)C(F)(F)F
p1261
sI1261
VO=N(=O)[O-].[Tl+3]
p1262
sI1262
VC1=CC=C(C2=NC=CC=C2)N=C1.O=[Cr](=O)(O)Cl
p1263
sI1263
VO=C([O-])[O-].[Ca+2]
p1264
sI1264
S'CCCC[n+]1ccn(C)c1.F[B-](F)(F)F'
p1265
sI1265
VCCCC[N+]1=CN(C)C=C1.FP(F)(F)(F)(F)F
p1266
sI1266
S'[K+].[I-]'
p1267
sI1267
S'[Na+].[I-]'
p1268
sI1268
S'[Na+].[Br-]'
p1269
sI1269
S'[Li+].[Cl-]'
p1270
sI1270
S'[Na+].[Cl-]'
p1271
sI1271
S'[Cl-].[Cl-].[Ca++]'
p1272
sI1272
VReaxys Name tin(ll) chloride
p1273
sI1273
S'[K+].[Br-]'
p1274
sI1274
S'[OH-].[K+]'
p1275
sI1275
S'[Li+].[Br-]'
p1276
sI1276
S'Reaxys ID 8128146'
p1277
sI1277
S'[OH-].[Na+]'
p1278
sI1278
S'[Mg++].[I-].[I-]'
p1279
sI1279
S'Reaxys ID 8128158'
p1280
sI1280
S'[Mg++].[Br-].[Br-]'
p1281
sI1281
S'[Mg++].[Cl-].[Cl-]'
p1282
sI1282
S'Reaxys ID 8128172'
p1283
sI1283
S'[OH-].[OH-].[Ba++]'
p1284
sI1284
S'[OH-].[OH-].[Ca++]'
p1285
sI1285
VReaxys Name barium(II) oxide
p1286
sI1286
S'CC(C)(CO[P](O)(=O)O[P](O)(=O)OC[C@H]1O[C@H]([C@H](O)[C@@H]1O[P](O)(O)=O)n2cnc3c(N)ncnc23)[C@@H](O)C(=O)NCCC(=O)NCC[S+]=O'
p1287
sI1287
S'[I-].[Cs+]'
p1288
sI1288
S'[Li+].[I-]'
p1289
sI1289
S'BB'
p1290
sI1290
S'[Li+].O.[OH-]'
p1291
sI1291
VC[Si](C)(C)[N-][Si](C)(C)C.[Li+]
p1292
sI1292
VN#N=O
p1293
sI1293
VO=S([O-])[O-].[Na+]
p1294
sI1294
VC=C[C@H]1CN2CC[C@H]1C[C@H]2[C@@H](N)c1ccnc2ccc(OC)cc12
p1295
sI1295
VReaxys Name bovine serum albumin
p1296
sI1296
S'N[C@H]1[C@H](O)O[C@H](CO)C(O[C@@H]2O[C@H](CO)C(O[C@@H]3O[C@H](CO)[C@@H](O)[C@H](O)[C@H]3N)[C@H](O)[C@H]2N)[C@@H]1O'
p1297
sI1297
VReaxys Name adenosine deaminase
p1298
sI1298
VReaxys Name paraffin oil
p1299
sI1299
VReaxys Name horseradish peroxidase
p1300
sI1300
VReaxys Name mineral oil
p1301
sI1301
VReaxys Name ?-chymotrypsin
p1302
sI1302
VReaxys Name ?-glucosidase
p1303
sI1303
S'Cc1ccccc1C'
p1304
sI1304
S'CC(C)(C)CC(C)(C)c1ccc(OCCO)cc1'
p1305
sI1305
VCOCCN(CCOC)S(F)(F)F
p1306
sI1306
VCC(=O)O[BH-](OC(C)=O)OC(C)=O.C[N+](C)(C)C
p1307
sI1307
S'Reaxys ID 8241478'
p1308
sI1308
VCC(C)(C)P(C1=CC=CC=C1C1=CC=CC=C1)C(C)(C)C
p1309
sI1309
S'C[NH+]1C=CN=C1.F[B-](F)(F)F'
p1310
sI1310
VF[B-](F)(F)F.O[N+]12CC[N+](F)(CC1)CC2
p1311
sI1311
VReaxys Name papain
p1312
sI1312
VReaxys Name Petroleum ether
p1313
sI1313
VCC(C)(C)[O-].[Na+]
p1314
sI1314
VCC(C)C1=CC=CC(C(C)C)=C1N1[C]N(C2=C(C(C)C)C=CC=C2C(C)C)C=C1
p1315
sI1315
VCC(C)C1=CC=CC(C(C)C)=C1N1[C]N(C2=C(C(C)C)C=CC=C2C(C)C)CC1
p1316
sI1316
VC1=CC=C(C2=C(P(C3CCCCC3)C3CCCCC3)C=CC=C2)C=C1
p1317
sI1317
VCC1=CC=CC=C1C1=C(P(C2CCCCC2)C2CCCCC2)C=CC=C1
p1318
sI1318
VCC(C)C1=CC=CC(C(C)C)=C1N1C=C[N+](C2=C(C(C)C)C=CC=C2C(C)C)=C1.[Cl-]
p1319
sI1319
V[SiH4]
p1320
sI1320
VCB1OC(C2=CC=CC=C2)(C2=CC=CC=C2)[C@@H]2CCCN12
p1321
sI1321
VCC(C)(C)[O-].[Li+]
p1322
sI1322
VN#C[Fe](C#N)(C#N)(C#N)(C#N)C#N.[K+]
p1323
sI1323
VReaxys Name bis(sym-collidine)iodine(I) hexafluorophosphate
p1324
sI1324
VReaxys Name cellulase
p1325
sI1325
VCN(C)C1=C(C2=CC=CC=C2P(C2CCCCC2)C2CCCCC2)C=CC=C1
p1326
sI1326
VCCCC[N+]1=CN(C)C=C1.O=S(=O)([N-]S(=O)(=O)C(F)(F)F)C(F)(F)F
p1327
sI1327
VCC(C)(C)Br
p1328
sI1328
V[Na+].[S-][S-]
p1329
sI1329
VCC(C)CN1CCN2CCN(CC(C)C)P1N(CC(C)C)CC2
p1330
sI1330
VO=S(=O)([N-]S(=O)(=O)C(F)(F)F)C(F)(F)F.[Ag+]
p1331
sI1331
VNN.O=S(=O)(O)O
p1332
sI1332
S'CCCC[n+]1ccccc1.F[B-](F)(F)F'
p1333
sI1333
VCCCCN1C=C[N+](C)=C1.O=S(=O)([O-])C(F)(F)F
p1334
sI1334
VReaxys Name tri tert-butylphosphoniumtetrafluoroborate
p1335
sI1335
VCCCCCN1C=C[N+](C)=C1.[Br-]
p1336
sI1336
VReaxys Name alkaline phosphatase
p1337
sI1337
VC1=CC=C(C[P+](C2=CC=CC=C2)(C2=CC=CC=C2)C2=CC=CC=C2)C=C1.O=S(=O)([O-])OO
p1338
sI1338
VNN.O=CO
p1339
sI1339
VCB1OC(C2=CC=CC=C2)(C2=CC=CC=C2)[C@H]2CCCN12
p1340
sI1340
VO=C(N=NC(=O)N1CCCCC1)N1CCCCC1
p1341
sI1341
VF
p1342
sI1342
VReaxys Name Candida rugosa lipase
p1343
sI1343
VCC(C)C1=CC(C(C)C)=C(C2=CC=CC=C2P(C(C)(C)C)C(C)(C)C)C(C(C)C)=C1
p1344
sI1344
VCC(=O)[O-].CCCC[N+]1=CN(C)C=C1
p1345
sI1345
VCC(C)C1=CC(C(C)C)=C(C2=CC=CC=C2P(C2CCCCC2)C2CCCCC2)C(C(C)C)=C1
p1346
sI1346
VOC(CS)C(O)CS
p1347
sI1347
V[H][C@@]12CCN3C[C@]1(CC)O[C@@]([H])(C1=C4C=C(O)C=CC4=NC=C1)[C@@]3([H])C2
p1348
sI1348
VO=C([O-])[O-].[Mg+2]
p1349
sI1349
S'Reaxys ID 9675160'
p1350
sI1350
VO=C([O-])C(F)(F)F.[Tl+3]
p1351
sI1351
VCCCCN1C=C[N+](C)=C1.Cl[In-](Cl)(Cl)Cl
p1352
sI1352
VC1=CC=C(CN2C=C(CN(CC3=CN(CC4=CC=CC=C4)N=N3)CC3=CN(CC4=CC=CC=C4)N=N3)N=N2)C=C1
p1353
sI1353
VCC(C)OC1=CC=CC(OC(C)C)=C1C1=C(P(C2CCCCC2)C2CCCCC2)C=CC=C1
p1354
sI1354
S'C=O'
p1355
sI1355
VCCCC[N+]1=CN(C)C=C1.O=S(=O)([O-])O
p1356
sI1356
V[AlH3+3].[O-]C1=C(C2=CC=CC=C2)C=CC=C1C1=CC=CC=C1
p1357
sI1357
VCN1C=C[N+](CCCCS(=O)(=O)O)=C1.O=S(=O)([O-])C(F)(F)F
p1358
sI1358
VC[Si](C)(C)OC(C1=CC=CC=C1)(C1=CC=CC=C1)[C@@H]1CCCN1
p1359
sI1359
VO=C([O-])[O-].[Rb+]
p1360
sI1360
V[H][C@@]12CCN(C[C@@H]1C=C)[C@]([H])([C@@H](N)C1=CC=NC3=CC=C(OC)C=C31)C2
p1361
sI1361
VF[P-](F)(F)(F)(F)F.[K+]
p1362
sI1362
VCOc1cccc(OC)c1-c1ccccc1P(C1CCCCC1)C1CCCCC1
p1363
sI1363
S'Cc1cc(C)c(c(C)c1)[n+]2cn3CCCc3n2.F[B-](F)(F)F'
p1364
sI1364
V[H][C@@]12CCN(C[C@@H]1C=C)[C@]([H])([C@@H](NC(=S)NC1=CC(C(F)(F)F)=CC(C(F)(F)F)=C1)C1=CC=NC3=CC=C(OC)C=C31)C2
p1365
sI1365
V[H][C@@]12CCN(C[C@@H]1C=C)[C@@]([H])([C@H](NC(=S)NC1=CC(C(F)(F)F)=CC(C(F)(F)F)=C1)C1=CC=NC3=CC=C(OC)C=C31)C2
p1366
sI1366
VReaxys Name 2-pentafluorophenyl-6,17dihydro-5H-pyrrolo[2,1-c][1,2,4]triazol-2-ium tetrafluoroborate
p1367
sI1367
VCCCCN1C=C[N+](C)=C1.[H][O-]
p1368
sI1368
VO=S(=O)([O-])C(F)(F)F.[In+3]
p1369
sI1369
VCCN(CC)CC.F
p1370
sI1370
VO=S(=O)([O-])C(F)(F)F.[Bi+3]
p1371
sI1371
VCC(C)(C)[C@H]1CN2C[C@H](C(C)(C)C)NC2=N1
p1372
sI1372
VCC(C)(C)[Si](C)(C)OC(C1=CC=CC=C1)(C1=CC=CC=C1)[C@@H]1CCCN1
p1373
sI1373
VC[Si](C)(C)OC(C1=CC(C(F)(F)F)=CC(C(F)(F)F)=C1)(C1=CC(C(F)(F)F)=CC(C(F)(F)F)=C1)[C@@H]1CCCN1
p1374
sI1374
VCC(C)C1=CC(C(C)C)=C(C2=CC3=CC=CC=C3C3=C2OP(=O)(O)OC2=C(C4=C(C(C)C)C=C(C(C)C)C=C4C(C)C)C=C4C=CC=CC4=C23)C(C(C)C)=C1
p1375
sI1375
VO=P1(O)OC2=C(C3=C(C=CC=C3)C=C2[Si](C2=CC=CC=C2)(C2=CC=CC=C2)C2=CC=CC=C2)C2=C(O1)C([Si](C1=CC=CC=C1)(C1=CC=CC=C1)C1=CC=CC=C1)=CC1=C2C=CC=C1
p1376
sI1376
VNC(=O)C1=CN([C@@H]2O[C@H](COP(=O)([O-])OP(=O)([O-])OC[C@H]3O[C@@H](N4C=NC5=C4N=CN=C5N)[C@H](OP(=O)([O-])[O-])[C@@H]3O)[C@@H](O)[C@H]2O)C=CC1.[Na+]
p1377
sI1377
V[H][B-](C(C)=O)(C(C)=O)C(C)=O.[Na+]
p1378
sI1378
S'F[B-](F)(F)F.C1Cn2c[n+](nc2C1)c3ccccc3'
p1379
sI1379
V[Cl-].[H][C@]12C3=CC=CC=C3C[C@@]1([H])OCC1=N[N+](C3=C(C)C=C(C)C=C3C)=CN12
p1380
sI1380
VCC1=CC(C)=C(N2CCN(C3=C(C)C=C(C)C=C3C)C2[Ru](Cl)(Cl)(=CC2=CC=CC=C2)P(C2CCCCC2)(C2CCCCC2)C2CCCCC2)C(C)=C1
p1381
sI1381
VN.O=N(=O)O
p1382
sI1382
VCl[Ru](Cl)(=CC1=CC=CC=C1)(P(C1CCCCC1)(C1CCCCC1)C1CCCCC1)P(C1CCCCC1)(C1CCCCC1)C1CCCCC1
p1383
sI1383
VCN1C=CN=C1.O=S(=O)(O)O
p1384
sI1384
VO=Br(=O)[O-].[K+]
p1385
sI1385
VO=S(=O)([O-])C(F)(F)F.[Fe+2]
p1386
sI1386
S'[H-].[Al+3].[H-].[H-]'
p1387
sI1387
S'[Cu]Br'
p1388
sI1388
VN#C[S-].[NH4+]
p1389
sI1389
VCC(=O)[O-].[NH4+]
p1390
sI1390
VO=C([O-])[O-].[NH4+]
p1391
sI1391
S'OCCO'
p1392
sI1392
VReaxys Name Fuller's Earth
p1393
sI1393
VReaxys Name porcine liver esterase
p1394
sI1394
VN[C@@H]1CCCC[C@H]1NC(=S)NC1=CC(C(F)(F)F)=CC(C(F)(F)F)=C1
p1395
sI1395
V[C-]#N.[K+]
p1396
sI1396
VReaxys Name Candida antarctica lipase B
p1397
sI1397
V[C-]#N.[Na+]
p1398
sI1398
VO=C1O[IH2](C(F)(F)F)C2=C1C=CC=C2
p1399
sI1399
VO=C(N[C@H]1CCCC[C@@H]1NC(=O)C1=C(P(C2=CC=CC=C2)C2=CC=CC=C2)C=CC=C1)C1=CC=CC=C1P(C1=CC=CC=C1)C1=CC=CC=C1
p1400
sI1400
VCCOCC.F[B-](F)(F)F.[H+]
p1401
sI1401
VO=P1(O)OC2=C(C3=C(C=CC=C3)C=C2C2=C3C=CC=CC3=CC3=C2C=CC=C3)C2=C(O1)C(C1=C3C=CC=CC3=CC3=C1C=CC=C3)=CC1=C2C=CC=C1
p1402
sI1402
VCOCCOC(=O)N=NC(=O)OCCOC
p1403
sI1403
V[H]B([H])B([H])[H]
p1404
sI1404
VReaxys Name Candida antarctica lipase
p1405
sI1405
VReaxys Name citrate buffer
p1406
sI1406
S'Reaxys ID 11314887'
p1407
sI1407
VReaxys Name PEG-400
p1408
sI1408
VReaxys Name polyethylene glycol-400
p1409
sI1409
VO=[Cr](=O)([O-])O[Cr](=O)(=O)[O-].[K+]
p1410
sI1410
S'[Cl-].[Cl-].[Cl-].[Ga+3]'
p1411
sI1411
S'[Cl-].[Cl-].[Cl-].[In+3]'
p1412
sI1412
VO=C([O-])[O-].[Cu+2]
p1413
sI1413
VCl[Pt](Cl)(Cl)(Cl)(Cl)Cl.[H+]
p1414
sI1414
VCC(S)S
p1415
sI1415
S'O=BOB=O'
p1416
sI1416
S'[F-].[F-].[Ca++]'
p1417
sI1417
VReaxys Name NaSH
p1418
sI1418
S'[Na+].[Na+].[SH-]'
p1419
sI1419
S'O=[Al]O[Al]=O'
p1420
sI1420
S'[Al+3].[Cl-].[Cl-].[Cl-]'
p1421
sI1421
S'Cl[Bi](Cl)Cl'
p1422
sI1422
S'[Cl-].[Cl-].[Cl-].[Cr+3]'
p1423
sI1423
VReaxys Name Catalyst M-Chromium oxide
p1424
sI1424
VO=S([O-])OS(=O)[O-].[K+]
p1425
sI1425
VO=C([O-])[O-].OO.[Na+]
p1426
sI1426
V[GaH3]
p1427
sI1427
S'S1SSSSSSS1'
p1428
sI1428
S'[NH4+].[I-]'
p1429
sI1429
VO=P(=O)OP(=O)=O
p1430
sI1430
VN.O=P(O)(O)O
p1431
sI1431
VReaxys Name 1,1'-bis-(diphenylphosphino)ferrocene
p1432
sI1432
VO=S([O-])S(=O)(=O)[O-].[Na+]
p1433
sI1433
VReaxys Name [iridium(III)(2-phenylpyridine)3]
p1434
sI1434
VO=BO[O-].[Na+]
p1435
sI1435
VO[B-]1(O)OO[B-](O)(O)OO1.[Na+]
p1436
sI1436
V[NaH].[NaH].[SeH2]
p1437
sI1437
S'[K+].O=O'
p1438
sI1438
V[Na+].[O-]B1OB2OB([O-])OB(O1)O2
p1439
sI1439
S'[Br-].[Ag+]'
p1440
sI1440
VCC1(C)CCCC(C)(C)N1[O]
p1441
sI1441
VO=S(=O)([O-])O.O=S(=O)([O-])OO.O=S(=O)([O-])[O-].[K+]
p1442
sI1442
S'[NH4+].[NH4+].[NH4+].[NH4+].[NH4+].[NH4+].O.O.O.O.[O--].[O--].[O--].[O--].[O--].[O--].[O--].[O--].[O--].[O--].[O--].[O--].[O--].[O--].[O--].[O--].[O--].[O--].[O--].[O--].[O--].[O--].[O--].[O--].[Mo].[Mo].[Mo].[Mo].[Mo].[Mo].[Mo]'
p1443
sI1443
S'O.O.O.O.O.O.O.O.O.O.O.O.O.O.O.O.O.O.O.O.O.O.O.O.O.O.O.O.O.O.O.O.O.O.O.O.O.O.O.O.P.[W].[W].[W].[W].[W].[W].[W].[W].[W].[W].[W].[W]'
p1444
sI1444
V[Na+].[O-]B([O-])[O-]
p1445
sI1445
VO=S(=O)([O-])[O-].[Ca+2]
p1446
sI1446
VO=[N+]([O-])[O-].[Bi+3]
p1447
sI1447
VCCCCCCCCCCCC(=O)[O-].CCCC[SnH4+2]CCCC
p1448
sI1448
VO=I(=O)[O-].[K+]
p1449
sI1449
VO=S(=O)([O-])S(=O)(=O)[O-].[Na+]
p1450
sI1450
S'O.O.O.O.O.O.O.O.O.O.O.O.[Na+].[Na+].[Na+].[O-][P]([O-])([O-])=O'
p1451
sI1451
VO=Cl(=O)[O-].[Na+]
p1452
sI1452
S'[NH4+].[F-]'
p1453
sI1453
VN.S
p1454
sI1454
VN.O=[V](=O)O
p1455
sI1455
V[BiH3]
p1456
sI1456
VN.O=S(=O)(O)O
p1457
sI1457
S'[F-].[K+]'
p1458
sI1458
V[InH3]
p1459
sI1459
VReaxys Name (n-Bu)CCTMS
p1460
sI1460
VP
p1461
sI1461
VN.O=P(O)(O)O
p1462
sI1462
V[PbH4]
p1463
sI1463
V[Ca+2].[OH-]
p1464
sI1464
V[Ba+2].[OH-]
p1465
sI1465
V[Cs+].[OH-]
p1466
sI1466
V[K+].[OH-]
p1467
sI1467
V[Li+].[OH-]
p1468
sI1468
V[NH4+].[OH-]
p1469
sI1469
V[Na+].[OH-]
p1470
sI1470
V[SeH2]
p1471
sI1471
V[SnH4]
p1472
sI1472
V[TeH2]
p1473
sI1473
V[Na+].[O-]Cl
p1474
sI1474
VO=Cl[O-].[Na+]
p1475
sI1475
VN.O=S(=O)(O)OOS(=O)(=O)O
p1476
sI1476
VO=S([O-])[O-].[K+]
p1477
sI1477
VO=Br(=O)[O-].[Na+]
p1478
sI1478
VO=[N+]([O-])[O-].[Na+]
p1479
sI1479
V[BH4-].[Na+]
p1480
sI1480
VO=[Si]([O-])[O-].[Mg+2]
p1481
sI1481
VO=S(=O)([O-])[O-].[AlH3+3]
p1482
sI1482
VO=S(=O)([O-])[O-].[NH4+]
p1483
sI1483
VO=S(=O)([O-])[O-].[K+]
p1484
sI1484
VO=P([O-])([O-])[O-].[AlH3+3]
p1485
sI1485
VO=[W](=O)([O-])[O-].[Na+]
p1486
sI1486
VO=P([O-])([O-])[O-].[K+]
p1487
sI1487
VO=[Mn](=O)(=O)[O-].[K+]
p1488
sI1488
V[Na+].[O-][I+3]([O-])([O-])[O-]
p1489
sI1489
VO=S(=O)([O-])O.[Na+]
p1490
sI1490
VO=S(=O)([O-])O.[K+]
p1491
sI1491
VO=S([O-])OS(=O)[O-].[Na+]
p1492
sI1492
VO=P([O-])([O-])O.[K+]
p1493
sI1493
VO=P([O-])([O-])O.[Na+]
p1494
sI1494
VO=S(=O)([O-])OO.[K+]
p1495
sI1495
VO=P([O-])(O)O.[K+]
p1496
sI1496
VO=P([O-])(O)O.[Na+]
p1497
sI1497
VO=S(=O)([O-])OOS(=O)(=O)[O-].[NH4+]
p1498
sI1498
VO=S(=O)([O-])OOS(=O)(=O)[O-].[Na+]
p1499
sI1499
VO=S(=O)([O-])OOS(=O)(=O)[O-].[K+]
p1500
sI1500
S'[K+].OO[S]([O-])=O'
p1501
sI1501
S'[K+].OO[S]([O-])=O'
p1502
sI1502
VReaxys Name sodium amalgam
p1503
sI1503
VReaxys Name AD-mix-?
p1504
sI1504
VReaxys Name Lindlar's catalyst
p1505
sI1505
VReaxys Name Lindlar's catalyst
p1506
sI1506
VReaxys Name Zn?Hg amalgam
p1507
sI1507
VReaxys Name aluminum amalgam
p1508
sI1508
VReaxys Name sodium amalgam
p1509
sI1509
VReaxys Name potassium fluoride on basic alumina
p1510
sI1510
VReaxys Name silica-gel-supported sulfuric acid
p1511
sI1511
S'Reaxys ID 11403869'
p1512
sI1512
S'Reaxys ID 11405916'
p1513
sI1513
VReaxys Name isopropylmagnesium chloride lithium chloride complex
p1514
sI1514
V[H][S-].[Na+]
p1515
sI1515
V[AlH7-].[Li+]
p1516
sI1516
VO=[Cr](=O)(O)O[Cr](=O)(=O)O.c1ccncc1
p1517
sI1517
VReaxys Name Jone's reagent
p1518
sI1518
S'[Al+3].[I-].[I-].[I-]'
p1519
sI1519
S'[OH-].[O--].[P-3].[Mo]'
p1520
sI1520
V[BH4-].[Li+]
p1521
sI1521
VO=[PH2][O-].[Na+]
p1522
sI1522
VO=S(=O)(O)O[O-].[K+]
p1523
sI1523
S'F[B-](F)(F)F.[H+]'
p1524
sI1524
S'[Li+].F[B-](F)(F)F'
p1525
sI1525
VF[B-](F)(F)F.[Na+]
p1526
sI1526
VO=S(=O)([O-])C(F)(F)F.[AlH3+3]
p1527
sI1527
VO=S(=O)([O-])C(F)(F)F.[Sn+2]
p1528
sI1528
S'[OH-].[Na+]'
p1529
sI1529
VReaxys Name 9-borabicyclo[3$dot$3$dot$1]nonane dimer
p1530
sI1530
VO=S(Br)Br
p1531
sI1531
VO=N[O-].[Ag+]
p1532
sI1532
V[Ca+2].[O-]Cl
p1533
sI1533
VCC(C)C1=CC(C(C)C)=C(C2=CC3=C(C=CC=C3)C3=C2OP(=O)(O)OC2=C3C3=C(C=CC=C3)C=C2C2=C(C(C)C)C=C(C(C)C)C=C2C(C)C)C(C(C)C)=C1
p1534
sI1534
S'Reaxys ID 11970704'
p1535
sI1535
S'Reaxys ID 12028193'
p1536
sI1536
VReaxys Name hexaammonium heptamolybdate tetrahydrate
p1537
sI1537
S'[B].N'
p1538
sI1538
S'Reaxys ID 12591086'
p1539
sI1539
S'C[Al](C)C.C[Al](C)C.C1CN2CCN1CC2'
p1540
sI1540
VReaxys Name Alkaline
p1541
sI1541
VNCl
p1542
sI1542
S'[Li+].[Cl-].[Cl-].C[Mg]N1CCCC(C)C1(C)C'
p1543
sI1543
VReaxys Name baker's yeast
p1544
sI1544
VReaxys Name jones reagent
p1545
sI1545
VReaxys Name jones' reagent
p1546
sI1546
S'O=[Si]=O'
p1547
sI1547
S'Reaxys ID 13133721'
p1548
sI1548
VReaxys Name ligroine
p1549
sI1549
S'[Li+].[Br-]'
p1550
sI1550
VReaxys Name molecular sieve
p1551
sI1551
S'Reaxys ID 13134145'
p1552
sI1552
S'Reaxys ID 13134178'
p1553
sI1553
S'[O-][O+]=O'
p1554
sI1554
VReaxys Name phosphate buffer
p1555
sI1555
VReaxys Name pig liver esterase
p1556
sI1556
S'O.O.O.CCN1C=C(C(O)=O)C(=O)c2cnc(nc12)N3CCNCC3'
p1557
sI1557
S'[F-].[K+]'
p1558
sI1558
S'[K+].[I-]'
p1559
sI1559
S'[H-].[Na+]'
p1560
sI1560
S'[Na+].[I-]'
p1561
sI1561
S'O.O.[Cl-].[Cl-].[Sn++]'
p1562
sI1562
VO=[Cr](=O)([O-])O[Cr](=O)(=O)[O-].[Na+]
p1563
sI1563
S'F[Si--](F)(F)(F)(F)F.[H+].[H+]'
p1564
sI1564
V[3H][3H]
p1565
sI1565
VCC(=O)O[B-](OC(C)=O)OC(C)=O.[Na+]
p1566
sI1566
S'[H-].[Ca++].[H-]'
p1567
sI1567
S'[H+].[F-].[F-].[K+]'
p1568
sI1568
VO=NOS(=O)(=O)O
p1569
sI1569
S'[Al+3].[Br-].[Br-].[Br-]'
p1570
sI1570
VReaxys Name NaClO
p1571
sI1571
VReaxys Name boron dimethyl-trifluoro sulphide
p1572
sI1572
VCCC[N+](CCC)(CCC)CCC.O=[Ru-](=O)(=O)=O
p1573
sI1573
VCCOC(=O)C(C#N)=NOC(N(C)C)=[N+](C)C.F[B-](F)(F)F
p1574
sI1574
VCCCC[N+](CCCC)(CCCC)CCCC.O=[Ru](=O)(=O)[O-]
p1575
sI1575
VCN(C)C(ON1N=NC2=NC=CC=C21)=[N+](C)C.FP(F)(F)(F)(F)F
p1576
sI1576
S'Reaxys ID 13173447'
p1577
sI1577
VReaxys Name TPCD
p1578
sI1578
VO=S(=O)(O)O[O-].O=S(=O)([O-])O.O=S(=O)([O-])[O-].[K+]
p1579
sI1579
VO=S(=O)(O)OCl
p1580
sI1580
VF[Xe]F
p1581
sI1581
VReaxys Name N,N-di-methylaminopyridine
p1582
sI1582
VO=C(O)C1=CC(OOCl)=CC=C1
p1583
sI1583
V[Br-].[PH3+3]
p1584
sI1584
V[Cl-].[PH3+3]
p1585
sI1585
VO=C([O-])[O-].[H+].[Na+]
p1586
sI1586
V[KH].[NaH]
p1587
sI1587
VO=S(=O)(F)F
p1588
sI1588
V[Fe+2].[OH-]
p1589
sI1589
V[F-].[NH4+]
p1590
sI1590
VO=N[O-].[K+]
p1591
sI1591
V[Na+].[O-]Br
p1592
sI1592
V[BH4-].[Ca+2]
p1593
sI1593
V[Hg].[NaH]
p1594
sI1594
VNP(=O)(Cl)N(N1CCOC1=O)N1CCOC1=O
p1595
sI1595
VReaxys Name zirconocene dichloride
p1596
sI1596
VNN.[H]Cl
p1597
sI1597
VS=P12SP3(=S)SP(=S)(S1)SP(=S)(S2)S3
p1598
sI1598
VNO.O=S(=O)(O)O
p1599
sI1599
V[Br-].[NH4+]
p1600
sI1600
VN.ON1N=NC2=CC=CC=C21
p1601
sI1601
VN#N=[N-].[Li+]
p1602
sI1602
V[Li+].[NH2-]
p1603
sI1603
V[K+].[O-]Cl
p1604
sI1604
VO=N(=O)[O-].[NH4+]
p1605
sI1605
S'[BH4-].[BH4-].[Zn++]'
p1606
sI1606
VO=N(=O)[O-].[Pb+2]
p1607
sI1607
V[BH4-].[K+]
p1608
sI1608
VO=Cl(=O)(=O)[O-].[Mg+2]
p1609
sI1609
VO=C([O-])O.[Cs+]
p1610
sI1610
V[2H][Al]([2H])([2H])[2H].[Li+]
p1611
sI1611
VO=S(=O)([O-])O[O-].[K+]
p1612
sI1612
VO=[Mo](=O)([O-])[O-].[H][N+]([H])([H])[H]
p1613
sI1613
VC1=CC=NC=C1.O=[Cr](=O)(O)O[Cr](=O)(=O)O
p1614
sI1614
VCN1C=C[N+](C)=C1Cl.[Cl-]
p1615
sI1615
VCl[Pd](Cl)(Cl)Cl.[Li+]
p1616
sI1616
S'F[B-](F)(F)F.O=[N+]=O'
p1617
sI1617
VC1=CC=C(C2=CC=CC=C2)C=C1.C1=CC=C(OC2=CC=CC=C2)C=C1
p1618
sI1618
S'[Li+].O.[OH-]'
p1619
sI1619
VReaxys Name amberlyst-15
p1620
sI1620
S'[K+].[I-]'
p1621
sI1621
VReaxys Name NaBH(OAc)3
p1622
sI1622
VReaxys Name polymethylhydrosiloxane
p1623
sI1623
VReaxys Name polyphosphate ester
p1624
sI1624
VO=Cl(=O)[O-].[K+]
p1625
sI1625
VN#CC(C1=CC=C(Cl)C=C1)C1=C(Cl)C=CC(N2N=CC(=O)NC2=O)=C1Cl
p1626
sI1626
VO=S(=O)(O)OO
p1627
sI1627
V[AsH3+3].[Cl-]
p1628
sI1628
V[2H][B-]([2H])([2H])[2H].[Na+]
p1629
sI1629
VBBBBBBBBBB
p1630
sI1630
VO=I(=O)OI(=O)=O
p1631
sI1631
V[K+].[O-]Br
p1632
sI1632
VO=I(=O)[O-].[Na+]
p1633
sI1633
V[3H]O[3H]
p1634
sI1634
S'F[Br](F)F'
p1635
sI1635
VFN(F)N(F)F
p1636
sI1636
VC[O+](C)[B-](F)(F)F
p1637
sI1637
VCN(C)C=O.O=S(=O)=O
p1638
sI1638
S'Reaxys ID 13273590'
p1639
sI1639
S'O.[Na+].O[S]([O-])(=O)=O'
p1640
sI1640
V[OH-].[Tl+]
p1641
sI1641
VFNF
p1642
sI1642
S'[H-].[Na+]'
p1643
sI1643
S'C[C@@]1(CO)O[P](O)(=O)O[P](O)(=O)OC[C@H]1O'
p1644
sI1644
VReaxys Name PS-carbodiimide
p1645
sI1645
VReaxys Name swern reagent
p1646
sI1646
S'[Li+].[OH-]'
p1647
sI1647
VO=[Mn](=O)(=O)[O-].[Ba+2]
p1648
sI1648
S'O.[K+].[K+].[K+].[O-][P]([O-])([O-])=O'
p1649
sI1649
VO=Br[O-].[Na+]
p1650
sI1650
VO=C1CCC2(CCNCC2)NC2=CC=CC=C12
p1651
sI1651
VCCOC(=O)/C(C#N)=N\u005cOC(N(C)C)=[N+](C)C.F[B-](F)(F)F
p1652
sI1652
VReaxys Name borohydride exchange resin
p1653
sI1653
VReaxys Name sodium peroxide
p1654
sI1654
S'O=[Pb].O1O[Pb]O[Pb]O[Pb]1'
p1655
sI1655
S'Reaxys ID 14198158'
p1656
sI1656
VReaxys Name boron trifluoride-tetrahydrofuran complex
p1657
sI1657
S'[Br-].[Br-].[Br-].c1cc[nH+]cc1.c2cc[nH+]cc2.c3cc[nH+]cc3'
p1658
sI1658
V[NH4+].[S-2]
p1659
sI1659
VN#N=[N-].[K+]
p1660
sI1660
V[2H][O-].[Na+]
p1661
sI1661
S'[Br-].[Br-].[Br-].c1cc[nH+]cc1.c2cc[nH+]cc2.c3cc[nH+]cc3'
p1662
sI1662
S'Reaxys ID 14201907'
p1663
sI1663
VCl[Cu](Cl)(Cl)Cl.[Li+]
p1664
sI1664
S'[H+].[F-].[F-].[K+]'
p1665
sI1665
VCCCCC(CC)C(=O)[O-].[Sn+2]
p1666
sI1666
VO=C(O)C1=C(C(=O)O[O-])C=CC=C1.[Mg+2]
p1667
sI1667
VCCCC[SnH2+](CCCC)CCCC.N#N=[N-]
p1668
sI1668
S'[Fe].[CH]1[CH][CH][C]([CH]1)P(c2ccccc2)c3ccccc3.[CH]4[CH][CH][C]([CH]4)P(c5ccccc5)c6ccccc6'
p1669
sI1669
S'Reaxys ID 14227090'
p1670
sI1670
VReaxys Name acetic acid ester
p1671
sI1671
VReaxys Name Carbonate buffer
p1672
sI1672
S'[Na+].[C-]#N'
p1673
sI1673
VReaxys Name novozyme 435
p1674
sI1674
VReaxys Name porcine pancreatic lipase
p1675
sI1675
VReaxys Name Proton Sponge
p1676
sI1676
VReaxys Name PS-carbodiimide resin
p1677
sI1677
VReaxys Name Tris-HCl buffer
p1678
sI1678
VCC(C)C[AlH3+]CC(C)C.[HH2-]
p1679
sI1679
VO=S(=O)([O-])O.[N+]=O
p1680
sI1680
VO=C1OC(C(O)CO)C([O-])=C1O.[Na+]
p1681
sI1681
S'Reaxys ID 14253791'
p1682
sI1682
VN.[H]P([H])(=O)O
p1683
sI1683
S'F[Cl](=O)(=O)=O'
p1684
sI1684
VReaxys Name PS-Trisamine scavenger reagent
p1685
sI1685
S'O.O.O.O.O.O.[La+3].[O-][N+]([O-])=O.[O-][N+]([O-])=O.[O-][N+]([O-])=O'
p1686
sI1686
VC1CCC2=NCCCN2CC1.CC(=O)O
p1687
sI1687
S'Reaxys ID 14282747'
p1688
sI1688
VIP(I)P(I)I
p1689
sI1689
S'Reaxys ID 14292158'
p1690
sI1690
VFS(F)(F)(F)(F)Cl
p1691
sI1691
V[Li+].[O-]O
p1692
sI1692
VP12P3P1P23
p1693
sI1693
VReaxys Name triphenylphosphine on polystyrene
p1694
sI1694
S'F[K]'
p1695
sI1695
VReaxys Name Lipase PS
p1696
sI1696
VReaxys Name potassium phosphate buffer
p1697
sI1697
VReaxys Name PS-DIEA
p1698
sI1698
VReaxys Name soda lime
p1699
sI1699
VN[O-].[K+]
p1700
sI1700
VN.S
p1701
sI1701
VReaxys Name methyl lithium LiBr complex
p1702
sI1702
VReaxys Name sodium [125I]iodide
p1703
sI1703
VCC(C)(C)C1=CC=C(C2=CC=C(C(C)(C)C)C=C2)C=C1.[Li+]
p1704
sI1704
S'Reaxys ID 14355144'
p1705
sI1705
S'[BH4-].[Na+]'
p1706
sI1706
VFS(F)(F)(F)(F)Br
p1707
sI1707
S'Reaxys ID 14374489'
p1708
sI1708
VO=[15N][O-].[Na+]
p1709
sI1709
S'Reaxys ID 14389845'
p1710
sI1710
S'[Br-].[Br-].[Br-].[In+3]'
p1711
sI1711
VCC[S+](N)CC.[F-]
p1712
sI1712
S'[Na+].S'
p1713
sI1713
V[Na+].[TeH-]
p1714
sI1714
S'O.O.O.O.O.O.O.O.O.O.[Na+].[Na+].[O-][S]([O-])(=O)=O'
p1715
sI1715
VReaxys Name chromium (VI) oxide
p1716
sI1716
S'[OH-].[Cs+]'
p1717
sI1717
VCN(C)C(ON1N=N(=O)C2=CC=CC=C21)=[N+](C)C.FP(F)(F)(F)(F)F
p1718
sI1718
VO=C(O)C1=CC=CC=C1OI
p1719
sI1719
V[Na+].[O-]B1OO1
p1720
sI1720
VReaxys Name chromium(VI) oxide - pyridine
p1721
sI1721
S'Nc1cncn1C2OC(CO[P](O)(O)=O)C(O)C2O'
p1722
sI1722
VReaxys Name Pseudomonas cepacia lipase
p1723
sI1723
V[K+].[O]N(S(=O)(=O)[O-])S(=O)(=O)[O-]
p1724
sI1724
VCN(C)C(ON1N=NC2=CC=C(Cl)C=C21)=[N+](C)C.FP(F)(F)(F)(F)F
p1725
sI1725
S'Reaxys ID 14539757'
p1726
sI1726
S'Reaxys ID 14541048'
p1727
sI1727
VNC(=O)C1=CN([C@@H]2O[C@H](COP(=O)(O)OP(=O)(O)OC[C@H]3O[C@@H](C4=NC5=C(N=CN=C5N)N4)[C@H](O)[C@@H]3O)[C@@H](O)[C@H]2O)C=CC1
p1728
sI1728
S'[Li+].[BH4-]'
p1729
sI1729
VCC(C)(C)O[Al-](OC(C)(C)C)OC(C)(C)C.[Li+]
p1730
sI1730
VO=C([O-])[O-].[H]O[H].[Na+]
p1731
sI1731
VC1CCCCC(C2CCCCCCCCN=N2)N=NCCC1
p1732
sI1732
VO=P(O)(O)O.O=[Mo](=O)=O
p1733
sI1733
VO=[N+]([O-])[O-].[Cu+2].[H]O[H]
p1734
sI1734
VO=[N+]([O-])[O-].[H]O[H].[Tl+3]
p1735
sI1735
VO=[N+]([O-])[O-].[Bi+3].[H]O[H]
p1736
sI1736
VO=[N+]([O-])[O-].[H]O[H].[Zn+2]
p1737
sI1737
VCC(=O)[O-].[Cu+2].[H]O[H]
p1738
sI1738
VC[N+](C)(C)CC1=CC=CC=C1.[Br-]
p1739
sI1739
VO=S(=O)([O-])[O-].[Cu+2].[H]O[H]
p1740
sI1740
VO=S(=O)([O-])OS(=O)(=O)[O-].[K+]
p1741
sI1741
VO=S(=O)([O-])[O-].[AlH3+3].[H]O[H].[K+]
p1742
sI1742
VNC1=C(F)C(F)=C(F)C(F)=C1F.O=S(=O)(O)C(F)(F)F
p1743
sI1743
VReaxys Name potassium sulfide
p1744
sI1744
VN=N#N
p1745
sI1745
VO=S(=O)([O-])O.[AlH3+3]
p1746
sI1746
VC1COCCN2CCOCCOCCN(CCO1)CCOCCOCC2.[18F-].[K+]
p1747
sI1747
S'[F-].[F-].[F-].[In+3]'
p1748
sI1748
S'[Co++].[cH-]1cccc1.[cH-]2cccc2'
p1749
sI1749
VReaxys Name hesperidinase
p1750
sI1750
VO=C([O-])C1=CC(C(=O)[O-])=CC(C(=O)[O-])=C1.[Cu+2]
p1751
sI1751
S'Reaxys ID 15497285'
p1752
sI1752
S'Reaxys ID 15511195'
p1753
sI1753
S'OC[C@@H](O)[C@@H](O)[C@@H](O)CNC1=C(C(=O)NC(=O)N1)[N+]([O-])=O'
p1754
sI1754
V[Cl-].[H][C@]12CC3=C(C=CC=C3)[C@@]1([H])N1C=[N+](C3=C(C)C=C(C)C=C3C)N=C1CO2
p1755
sI1755
VII[I-].[K+]
p1756
sI1756
VC[Si](C)(C)OC(C1=CC=CC=C1)(C1=CC=CC=C1)[C@H]1CCCN1
p1757
sI1757
S'[Na+].[Cl-]'
p1758
sI1758
V[K+].[O]N(S(=O)(=O)[O-])S(=O)(=O)[O-]
p1759
sI1759
S'Cl.NN'
p1760
sI1760
VCC1=CC(C)=C(N2C=[N+]3CCCC3=N2)C(C)=C1.[Cl-]
p1761
sI1761
V[H][C@@]12CCC[C@]1([H])[N+]([O-])(CCC[N+]1([O-])[C@H](C(=O)NC3=C(C(C)C)C=CC=C3C(C)C)C[C@]3([H])CCC[C@@]31[H])[C@H](C(=O)NC1=C(C(C)C)C=CC=C1C(C)C)C2
p1762
sI1762
V[Hg].[Zn]
p1763
sI1763
VReaxys Name tetrabutylammonium hexanitratocerate(IV)
p1764
sI1764
VO=NN(=O)=O
p1765
sI1765
VO=P([O-])([O-])[O-].[H]O[H].[K+]
p1766
sI1766
VC1=CC=C(P(C2=CC=CC=C2)C2=CC=CC=C2)C=C1.O=S(=O)([N-]S(=O)(=O)C(F)(F)F)C(F)(F)F.[Au+]
p1767
sI1767
VReaxys Name 2-(dicyclohexylphosphino)-2',4',6'-triisopropylbiphenyl Au bis(trifluoromethylsulfonyl)imide
p1768
sI1768
S'Reaxys ID 16438376'
p1769
sI1769
VCC1=C(O)C(C(=O)[O-])=CC=C1.[Cu+]
p1770
sI1770
VNN.[H]O[H]
p1771
sI1771
V[NaH].[NaH].[TeH2]
p1772
sI1772
S'O.O.O.O.[Cl-].[Cl-].[Fe++]'
p1773
sI1773
VO=S(=O)([O-])O.[Mg+2]
p1774
sI1774
S'Reaxys ID 16472921'
p1775
sI1775
S'Reaxys ID 16474599'
p1776
sI1776
VO=Cl(=O)(=O)[O-].[H]O[H].[Ni+2]
p1777
sI1777
S'[Br-].[InH2+]'
p1778
sI1778
S'OC(=O)CCCC(=O)Nc1ccc(cc1)\\C=C\\c2ccccc2'
p1779
sI1779
VO=S(=O)([O-])[O-].[Fe+3].[H]O[H]
p1780
sI1780
S'O.Cl[Sn]Cl'
p1781
sI1781
VReaxys Name sodium monohydrogen sulfide n-hydrate
p1782
sI1782
S'O.O.O.O.O.O.O.O.[OH-].[OH-].[Ba++]'
p1783
sI1783
S'Reaxys ID 16494176'
p1784
sI1784
S'Reaxys ID 16494913'
p1785
sI1785
VReaxys Name hexaammonium heptamolybdate tetrahydrate
p1786
sI1786
V[Hg].[MgH2]
p1787
sI1787
VC.C.[CaH2]
p1788
sI1788
VO=O
p1789
sI1789
VReaxys Name dibutylzirconocene
p1790
sI1790
S'Reaxys ID 16518682'
p1791
sI1791
S'Reaxys ID 16519128'
p1792
sI1792
VO=S(=O)([O-])[O-].[Ce+4].[H]O[H]
p1793
sI1793
S'[Li+].O.[OH-]'
p1794
sI1794
VCl[Au-](Cl)(Cl)Cl.[H]O[H].[Na+]
p1795
sI1795
VO=Cl(=O)(=O)[O-].[Fe+3].[H]O[H]
p1796
sI1796
V[Na+].[Se-][Se-]
p1797
sI1797
VCCCC[P+](C1=CC=CC=C1)(C1=CC=CC=C1)C1=CC=CC=C1.O=[Cr](=O)([O-])O[Cr](=O)(=O)[O-]
p1798
sI1798
VF[B-](F)(F)F.[H]O[H].[Ni+2]
p1799
sI1799
VC1=CC=C(P(C2=CC=CC=C2)C2=CC=CC=C2)C=C1.[Au+].[Cl-]
p1800
sI1800
VN1S2NS3NS2NS13
p1801
sI1801
S'CC1=C(C)C(C)(C)C(=C1C)[Co](I)(I)=C=O'
p1802
sI1802
VC1=CC=NC=C1.F[B-](F)(F)F.[I+]
p1803
sI1803
VO=P([O-])([O-])[O-].[H]O[H].[K+]
p1804
sI1804
VN#N=NI
p1805
sI1805
VO=S(=O)([O-])OF.[Cs+]
p1806
sI1806
S'O.[OH-].[Cs+]'
p1807
sI1807
VCP(C)(C)[Co](P(C)(C)C)(P(C)(C)C)P(C)(C)C
p1808
sI1808
S'Reaxys ID 16889173'
p1809
sI1809
VO=S(=O)([O-])O.[Fe+3]
p1810
sI1810
VReaxys Name NaHS monohydrate
p1811
sI1811
V[H][Se-].[Na+]
p1812
sI1812
VReaxys Name dichloro(pyridine-2-carboxylato)gold(III)
p1813
sI1813
S'Reaxys ID 17485095'
p1814
sI1814
VC1=CC=NC=C1.[H]F
p1815
sI1815
VReaxys Name potassium hydroxide semihydrate
p1816
sI1816
VReaxys Name tetrakis[?-(?S)-?-(1,1-dimethylethyl)-2,3-dihydro-1H-naphtho[1,8-cd]pyridine-2-acetato-?O:?O']dirhodium(II)
p1817
sI1817
VCC(C)C1=CC=CC(C(C)C)=C1N1[C-]=[N+](C2=C(C(C)C)C=CC=C2C(C)C)C=C1.Cl
p1818
sI1818
VCC1=CC=C(S(=O)(=O)[O-])C=C1.[Fe+3].[H]O[H]
p1819
sI1819
S'Reaxys ID 18026955'
p1820
sI1820
VReaxys Name [Au(1,3-bis(2,6-diisopropylphenyl)imidazol-2-ylidene)(bis-(trifluoromethanesulfonyl)imidate)]
p1821
sI1821
S'Reaxys ID 18377859'
p1822
sI1822
S'Reaxys ID 18472854'
p1823
sI1823
VReaxys Name sodium acetate buffer
p1824
sI1824
VReaxys Name sodium phosphate buffer
p1825
sI1825
VReaxys Name borate buffer
p1826
sI1826
VCN1C=C[N+](CCCCS(=O)(=O)O)=C1.O=S(=O)([O-])O
p1827
sI1827
VO=P1(O)OC2=C(C3=CC=CC=C3C=C2[Si](C2=CC=CC=C2)(C2=CC=CC=C2)C2=CC=CC=C2)C2=C(O1)C([Si](C1=CC=CC=C1)(C1=CC=CC=C1)C1=CC=CC=C1)=CC1=CC=CC=C12
p1828
sI1828
VCC(C)C1=CC(C(C)C)=C(C2=CC3=CC=CC=C3C3=C2OP(=O)(O)OC2=C3C3=CC=CC=C3C=C2C2=C(C(C)C)C=C(C(C)C)C=C2C(C)C)C(C(C)C)=C1
p1829
sI1829
VReaxys Name 10 Pd/C
p1830
sI1830
VC[Si](C)(C)OC(C1=CC=CC=C1)(C1=CC=CC=C1)C1CCCN1
p1831
sI1831
V[AlH6].[Hg]
p1832
sI1832
VO=P1(O)OC2=C(C3=C4C=CC=CC4=CC4=CC=CC=C43)C=C3C=CC=CC3=C2C2=C(O1)C(C1=C3C=CC=CC3=CC3=CC=CC=C31)=CC1=CC=CC=C12
p1833
sI1833
VC1COCCN1.O=[Cr](=O)(O)Cl
p1834
sI1834
S'Reaxys ID 18874486'
p1835
sI1835
VReaxys Name 10 Pd/C
p1836
sI1836
VReaxys Name acetate buffer
p1837
sI1837
VBr[Cu]Br.[Li+]
p1838
sI1838
S'Reaxys ID 18902179'
p1839
sI1839
VReaxys Name 10 Pd on charcoal
p1840
sI1840
S'Reaxys ID 19016041'
p1841
sI1841
VC1=CC=C(P(CCCCP(C2=CC=CC=C2)C2=CC=CC=C2)C2=CC=CC=C2)C=C1.C=CC[Pd]Cl
p1842
sI1842
S'[K+].O[S](=O)(=O)OO[S]([O-])(=O)=O'
p1843
sI1843
S'Reaxys ID 19095706'
p1844
sI1844
S'Reaxys ID 19096014'
p1845
sI1845
S'Reaxys ID 19100772'
p1846
sI1846
VCC1=CC(C)=C([N+]2=CSC3=C2CCCCC3)C(C)=C1.O=Cl(=O)(=O)[O-]
p1847
sI1847
VC1=CC=NC=C1.O=[Cr](=O)(O)Br
p1848
sI1848
S'[Li+].O.[OH-]'
p1849
sI1849
VC1=CC2=C(C=C1)N=CC=C2.O=[Cr](=O)(O)Br
p1850
sI1850
VCCCCCC[N+]1=CN(C)C=C1.O=S(=O)([O-])O
p1851
sI1851
VC1=CC=C(P(CC2CC(CP(C3=CC=CC=C3)C3=CC=CC=C3)C(CP(C3=CC=CC=C3)C3=CC=CC=C3)C2CP(C2=CC=CC=C2)C2=CC=CC=C2)C2=CC=CC=C2)C=C1
p1852
sI1852
VC1=CC=C(C[P+](C2=CC=CC=C2)(C2=CC=CC=C2)C2=CC=CC=C2)C=C1.O=S(=O)([O-])OOS(=O)(=O)[O-]
p1853
sI1853
S'[Cu++].[O-][Mn](=O)(=O)=O.[O-][Mn](=O)(=O)=O.c1ccc(nc1)c2ccccn2.c3ccc(nc3)c4ccccn4'
p1854
sI1854
VC1=CC=NC=C1.O=[Cr](=O)=O
p1855
sI1855
VReaxys Name Collins oxidation agent
p1856
sI1856
VReaxys Name HMTAB
p1857
sI1857
VO=S(=O)(O)O[W](=O)(=O)OS(=O)(=O)O
p1858
sI1858
VO=S(=O)([O-])C(F)(F)F.[In+]
p1859
sI1859
VCC(C)CN1CCP2CCN(CC(C)C)N1N(CC(C)C)CC2
p1860
sI1860
VCN1CCP2CCN(C)N1N(C)CC2
p1861
sI1861
V[Li]C1=C(C2=CC=C(C(C)(C)C)C=C2)C=CC(C(C)(C)C)=C1
p1862
sI1862
VC1=CC=C(C[P+](C2=CC=CC=C2)(C2=CC=CC=C2)C2=CC=CC=C2)C=C1.O=[Cr](=O)([O-])O[Cr](=O)(=O)[O-]
p1863
sI1863
VCCCCN1OC1(F)CCC
p1864
sI1864
S'[OH-].[O--].[P-3].[Mo]'
p1865
sI1865
VCN(C)CCCN=C=NCN.Cl
p1866
sI1866
VReaxys Name 3 A molecular sieve
p1867
sI1867
VReaxys Name 3 Angstroem MS
p1868
sI1868
VReaxys Name 4 A molecular sieve
p1869
sI1869
VReaxys Name 4 Angstroem MS
p1870
sI1870
VReaxys Name 5A molecular sieve
p1871
sI1871
VReaxys Name AD-mix-?
p1872
sI1872
S'Reaxys ID 19255299'
p1873
sI1873
VReaxys Name alkali hydroxide
p1874
sI1874
VReaxys Name alkaline solution
p1875
sI1875
S'Reaxys ID 19257205'
p1876
sI1876
VReaxys Name boron fluoride ether
p1877
sI1877
VReaxys Name copper oxide-chromium oxide
p1878
sI1878
VReaxys Name coppered zinc
p1879
sI1879
VReaxys Name Hg(II)-EDTA
p1880
sI1880
VReaxys Name ion-exchange resin lt;H+ formgt;
p1881
sI1881
VReaxys Name ion-exchange resin lt;OH- formgt;
p1882
sI1882
VReaxys Name Lewis acid
p1883
sI1883
S'Cc1cccc(C)n1'
p1884
sI1884
VReaxys Name mineral acid
p1885
sI1885
VReaxys Name mixture of gaseous nitrogen oxides
p1886
sI1886
VReaxys Name montmorillonite K-10
p1887
sI1887
VReaxys Name MS 4 Angstroem
p1888
sI1888
VReaxys Name Nafion-H
p1889
sI1889
VReaxys Name nickel kieselguhr
p1890
sI1890
VReaxys Name nitric oxide
p1891
sI1891
VReaxys Name nitrogen oxides
p1892
sI1892
S'Reaxys ID 19286134'
p1893
sI1893
VReaxys Name Pseudomonas sp$dot$ AJ-11220
p1894
sI1894
VReaxys Name pumice stone
p1895
sI1895
VReaxys Name Rink amino resin
p1896
sI1896
S'[Co++].[O-]c1ccccc1C=NCCN=Cc2ccccc2[O-]'
p1897
sI1897
VReaxys Name Silphos
p1898
sI1898
VReaxys Name steam
p1899
sI1899
VReaxys Name TFA-anisole
p1900
sI1900
S'C[Sn](C)(C)N=[N+]=[N-]'
p1901
sI1901
S'NC(CO)(CO)CO'
p1902
sI1902
S'NC(N)=O.OO'
p1903
sI1903
S'NC(N)=O.OO'
p1904
sI1904
VReaxys Name vanadyl acetylacetonate
p1905
sI1905
VReaxys Name WSC*HCl
p1906
sI1906
VReaxys Name zirconocene dichloride
p1907
sI1907
VReaxys Name TMPZnCl*LiCl
p1908
sI1908
VC[N+](C)(C)CCO.NC(N)=O.[Cl-]
p1909
sI1909
S'O.O.O.O.O.O.O.[Cl-].[Cl-].[Cl-].[La+3]'
p1910
sI1910
VCC1=CC=CC=C1.O=S(=O)(N([Au]P(C1=CC=CC=C1)(C1=CC=CC=C1)C1=CC=CC=C1)S(=O)(=O)C(F)(F)F)C(F)(F)F
p1911
sI1911
VReaxys Name palladium 10 on activated carbon
p1912
sI1912
VO=S(=O)([N-]S(=O)(=O)C(F)(F)F)C(F)(F)F.[Ca+2]
p1913
sI1913
VO=S(=O)([O-])O.O=S(=O)([O-])OO.O=S(=O)([O-])[O-].[K+]
p1914
sI1914
VCCOC(=O)C(C#N)=NO[C+](N(C)C)N1CCOCC1.FP(F)(F)(F)(F)F
p1915
sI1915
S'OCCN(CCO)CCO'
p1916
sI1916
VCC(C)[C@@H]1CN2C3=CC=CC=C3SC2=N[C@@H]1C1=CC=CC=C1
p1917
sI1917
VO=C1C2=C(C=CC=C2)S(=O)(=O)N1S(=O)(=O)O
p1918
sI1918
S'Reaxys ID 20151466'
p1919
sI1919
S'Reaxys ID 20250187'
p1920
sI1920
S'Reaxys ID 20303786'
p1921
sI1921
S'Reaxys ID 20303787'
p1922
sI1922
VReaxys Name Pd-PEPPSI-IPent
p1923
sI1923
S'Reaxys ID 20359749'
p1924
sI1924
VReaxys Name cellulose sulfuric acid
p1925
sI1925
VCC[C@H](C)[C@@H](CP(C1=CC=CC=C1)C1=CC=CC=C1)NC(=O)C1=CC(C(F)(F)F)=CC(C(F)(F)F)=C1
p1926
sI1926
VCl[Pd](Cl)(P(C1CCCCC1)(C1CCCCC1)N1CCCCC1)P(C1CCCCC1)(C1CCCCC1)N1CCCCC1
p1927
sI1927
VCS(=O)(=O)O.O=P(=O)OP(=O)=O
p1928
sI1928
S'Reaxys ID 20588003'
p1929
sI1929
V[H][C@@]12CCC[C@]1([H])[N@@+]([O-])(CCC[N@@+]1([O-])[C@H](C(=O)NC3=C(C(C)C)C=CC=C3C(C)C)C[C@]3([H])CCC[C@@]31[H])[C@H](C(=O)NC1=C(C(C)C)C=CC=C1C(C)C)C2
p1930
sI1930
S'Reaxys ID 20657535'
p1931
sI1931
VReaxys Name palladium 10 on activated carbon
p1932
sI1932
VReaxys Name DIPEA
p1933
sI1933
V[H][C@@]12CCN(C[C@@H]1C=C)[C@]([H])([C@@H](NC1=C(NC3=CC(C(F)(F)F)=CC(C(F)(F)F)=C3)C(=O)C1=O)C1=CC=NC3=C1C=C(OC)C=C3)C2
p1934
sI1934
VReaxys Name 10 palladium on activated charcoal
p1935
sI1935
VReaxys Name 10 palladium on activated carbon
p1936
sI1936
VCN1CCCC1=O.O=S(=O)(O)O
p1937
sI1937
VO=C(NC1=CC(C(F)(F)F)=CC(C(F)(F)F)=C1)NC1=CC=CC=C1B(F)F
p1938
sI1938
S'Reaxys ID 21455392'
p1939
sI1939
VReaxys Name perchloric acid adsorbed on silica gel
p1940
sI1940
S'Reaxys ID 21565323'
p1941
sI1941
VReaxys Name silica-gel-supported sulfuric acid
p1942
sI1942
VReaxys Name potassium fluoride/aluminium oxide
p1943
sI1943
VReaxys Name 20 palladium hydroxide on charcoal
p1944
sI1944
VReaxys Name Pearlman's catalist
p1945
sI1945
VCN(C)CCNC(=S)NC1=CC(C(F)(F)F)=CC(C(F)(F)F)=C1
p1946
sI1946
VReaxys Name NHC-Pd(II)-Im
p1947
sI1947
S'Reaxys ID 22015134'
p1948
sI1948
VReaxys Name silica gel supported sodium hydrogen sulfate
p1949
sI1949
S'Reaxys ID 22408730'
p1950
sI1950
VCC(C)(C)[C@H](N)CNC1CCCCC1
p1951
sI1951
VCC1(C)C2=CC=CC3=C2OC2=C1C=CC=C2P(C1=CC=CC=C1)(C1=CC=CC=C1)[Pd](Cl)(Cl)P3(C1=CC=CC=C1)C1=CC=CC=C1
p1952
sI1952
S'Reaxys ID 22805418'
p1953
sI1953
V[Ag]
p1954
sI1954
VReaxys Name 5 Pd/C
p1955
sI1955
VReaxys Name 10 Pd/C
p1956
sI1956
VReaxys Name CuI
p1957
sI1957
VReaxys Name 10 Pd/C
p1958
sI1958
S'O=[Cu]'
p1959
sI1959
VReaxys Name nickel(II) ferrite
p1960
sI1960
V[Pd]
p1961
sI1961
VReaxys Name zinc(II) oxide
p1962
sI1962
V[Cu]
p1963
sI1963
V[Au]
p1964
sI1964
V[Ni]
p1965
sI1965
S'O=[Mg]'
p1966
sI1966
VReaxys Name sodium amalgam
p1967
sI1967
S'Reaxys ID 22989611'
p1968
sI1968
S'Reaxys ID 23013228'
p1969
sI1969
S'O=[Ce]=O'
p1970
sI1970
S'[OH2--].[Cu+].[Cu+]'
p1971
sI1971
S'Reaxys ID 23130651'
p1972
sI1972
S'Reaxys ID 23142567'
p1973
sI1973
VReaxys Name zinc ferrite
p1974
sI1974
S'Reaxys ID 23167399'
p1975
sI1975
S'O=[Ni]'
p1976
sI1976
V[H][C@@]12CCN(C[C@@H]1C=C)[C@]([H])([C@@H](NC1=C(NC3=CC(C(F)(F)F)=CC(C(F)(F)F)=C3)C(=O)C1=O)C1=CC=NC3=CC=C(OC)C=C31)C2
p1977
sI1977
VCC1(C)O[IH2](F)C2=CC=CC=C21
p1978
sI1978
S'Reaxys ID 27810310'
p1979
s.