(dp0
I0
S''
p1
sI1
VC1CCOC1
p2
sI2
VC1CCNCC1
p3
sI3
VCN1CCCC1
p4
sI4
VCC1CCCO1
p5
sI5
VC1COCOC1
p6
sI6
VC1COCCO1
p7
sI7
VC1=CSC=C1
p8
sI8
Vc1ccncc1
p9
sI9
VCN1CCCC1=O
p10
sI10
VCc1cc(C)nc(C)c1
p11
sI11
Vc1ccc2ncccc2c1
p12
sI12
VO=S1(=O)CCCC1
p13
sI13
VCN1CCN(C)C1=O
p14
sI14
VCN1CCCN(C)C1=O
p15
sI15
VC1CCOC1
p16
sI16
V[2H]C1=NC([2H])=C([2H])C([2H])=C1[2H]
p17
sI17
VO=C1CCCCC1
p18
sI18
VCC(=O)OC(C)=O
p19
sI19
VNCCO
p20
sI20
VOCCO
p21
sI21
VCC1CCCCC1
p22
sI22
VNC=O
p23
sI23
VCC(=O)O
p24
sI24
VCS(C)=O
p25
sI25
VCCC(=O)O
p26
sI26
VCCOC(C)=O
p27
sI27
VCOc1ccccc1
p28
sI28
VN#Cc1ccccc1
p29
sI29
VCCC(=O)OC(=O)CC
p30
sI30
VCN(C)c1ccccc1
p31
sI31
VO=[N+]([O-])c1ccccc1
p32
sI32
VCNC
p33
sI33
VNCCN
p34
sI34
VClCCCl
p35
sI35
VBrCCBr
p36
sI36
VCCNCC
p37
sI37
VCCN(CC)CC
p38
sI38
VCCN(C(C)C)C(C)C
p39
sI39
VCC(=O)Cl
p40
sI40
VCN(C)C=O
p41
sI41
VCCOC(OCC)OCC
p42
sI42
VCC(=O)CC(C)C
p43
sI43
VCC1=CC=CC(C)=C1
p44
sI44
VClC1=CC=CC=C1
p45
sI45
VClC1=C(Cl)C=CC=C1
p46
sI46
VCC(C)O
p47
sI47
VCC(C)=O
p48
sI48
VOCC(O)CO
p49
sI49
VCCC(=O)CC
p50
sI50
VCc1ccccc1
p51
sI51
VCOC(=O)OC
p52
sI52
VCN
p53
sI53
VCC#N
p54
sI54
VCCC(C)=O
p55
sI55
VO=C(O)C(F)(F)F
p56
sI56
VCCN(CC)C1=CC=CC=C1
p57
sI57
VO=C(OC(=O)C(F)(F)F)C(F)(F)F
p58
sI58
VCCS
p59
sI59
VCCC(C)O
p60
sI60
VCCC#N
p61
sI61
VC1CCC2CCCCC2C1
p62
sI62
VOCC1=CC=CC=C1
p63
sI63
VCC(C)(C)O
p64
sI64
VC1=CCCCC1
p65
sI65
VC[C@H]1CC[C@@](C)(O)CC1
p66
sI66
VCC1=CC(C)=CC(C)=C1
p67
sI67
VO=P(Cl)(Cl)Cl
p68
sI68
VCCOC(=O)OCC
p69
sI69
VClC1=CC=C(Cl)C(Cl)=C1
p70
sI70
VCCCCC
p71
sI71
VBrCBr
p72
sI72
VCCCCO
p73
sI73
VCCCCCCO
p74
sI74
VClC(Cl)C(Cl)Cl
p75
sI75
VOCCOCCO
p76
sI76
Vc1ccccc1
p77
sI77
VOCCO
p78
sI78
VOc1ccccc1
p79
sI79
VCl/C=C\u005cCl
p80
sI80
VCNC(C)=O
p81
sI81
VCl
p82
sI82
VCO
p83
sI83
VCCCO
p84
sI84
VCCOCCO
p85
sI85
VS=C=S
p86
sI86
VClC(Cl)(Cl)Cl
p87
sI87
VCN(C)P(=O)(N(C)C)N(C)C
p88
sI88
VCOCCOC
p89
sI89
VO=CO
p90
sI90
VO=S(Cl)Cl
p91
sI91
VCCN(=O)=O
p92
sI92
V[O-][Cl+3]([O-])([O-])O
p93
sI93
VFC1=CC=CC=C1
p94
sI94
VBrC1=CC=CC=C1
p95
sI95
V[2H]C([2H])([2H])S(=O)C([2H])([2H])[2H]
p96
sI96
VClC(Cl)=C(Cl)Cl
p97
sI97
V[2H]C1([2H])OC([2H])([2H])C([2H])([2H])OC1([2H])[2H]
p98
sI98
VCC(O)CO
p99
sI99
VCCC(C)(C)O
p100
sI100
VCCCC#N
p101
sI101
Vc1ccc(Oc2ccccc2)cc1
p102
sI102
VCl/C=C/Cl
p103
sI103
VCS(=O)(=O)O
p104
sI104
VC1=CC=C2CCCCC2=C1
p105
sI105
V[2H]C1=C([2H])C([2H])=C(N(=O)=O)C([2H])=C1[2H]
p106
sI106
VCC1(C)C=CC=CC1
p107
sI107
VC1=CC=C(C2=CC=CC=C2)C=C1
p108
sI108
VFC1=C(F)C(F)=C(F)C(F)=C1F
p109
sI109
VCCCCCCCC
p110
sI110
VCC(C)CC(C)(C)C
p111
sI111
VCCOCC
p112
sI112
VCC(Cl)Cl
p113
sI113
VCCCCCCCCC
p114
sI114
VCCCCCCCCCC
p115
sI115
VCCCCCCCCCCCC
p116
sI116
VReaxys Name chloroform-d1
p117
sI117
VC[N+](=O)[O-]
p118
sI118
VCOCCOCCOCCOC
p119
sI119
S'Reaxys ID 1702935'
p120
sI120
VCCO
p121
sI121
VCC(C)CCO
p122
sI122
VCCC(C)C
p123
sI123
VCCCCCC
p124
sI124
VCCCC(C)C
p125
sI125
VCOC
p126
sI126
VCCCCCCC
p127
sI127
VCCOC
p128
sI128
VClCCl
p129
sI129
VCC(C)CO
p130
sI130
VCOC(C)(C)C
p131
sI131
V[2H]OC
p132
sI132
VCCCCCO
p133
sI133
VFC(Cl)Cl
p134
sI134
VClC(Cl)Cl
p135
sI135
VCOCCO
p136
sI136
V[2H]OCC
p137
sI137
VCC(C)OC(C)C
p138
sI138
VCC(Cl)(Cl)Cl
p139
sI139
VClCC(Cl)Cl
p140
sI140
VFC(F)(Cl)Cl
p141
sI141
VFC(Cl)(Cl)Cl
p142
sI142
VCCCCOCCCC
p143
sI143
VCCOCCOCC
p144
sI144
VOCC(F)(F)F
p145
sI145
V[2H]OC([2H])([2H])[2H]
p146
sI146
VClCCl
p147
sI147
VCOCCOCCOC
p148
sI148
VCCCCCCCCCCCCCCCC
p149
sI149
VCOC(C)=O
p150
sI150
VClC=C(Cl)Cl
p151
sI151
VCC(=O)N(C)C
p152
sI152
VCC(C)C(N)=O
p153
sI153
V[2H]C([2H])([2H])C#N
p154
sI154
VFC(F)(Cl)C(F)(Cl)Cl
p155
sI155
VClC(Cl)(Cl)C(Cl)(Cl)Cl
p156
sI156
VCC(=O)OC(C)C
p157
sI157
VCCCCOC(C)=O
p158
sI158
V[2H]C([2H])([2H])N(=O)=O
p159
sI159
VO=S(=O)(O)C(F)(F)F
p160
sI160
VCC1=CC=CC=C1C
p161
sI161
VOC(C(F)(F)F)C(F)(F)F
p162
sI162
VOCCOCCOCCOCCOCCOCCOCCOCCOCCOCCO
p163
sI163
VC1CCCC1
p164
sI164
VC1CCCCC1
p165
sI165
VO=C=O
p166
sI166
VCC1=CC=C(C)C=C1
p167
sI167
VCCC1=CC=CC=C1
p168
sI168
V[2H]C1=C([2H])C([2H])=C([2H])C([2H])=C1[2H]
p169
sI169
VFC(F)(F)C1=CC=CC=C1
p170
sI170
V[2H]C(=O)N(C([2H])([2H])[2H])C([2H])([2H])[2H]
p171
sI171
V[2H]C1([2H])C([2H])([2H])C([2H])([2H])C([2H])([2H])C([2H])([2H])C1([2H])[2H]
p172
sI172
V[2H]C1=C([2H])C([2H])=C(C([2H])([2H])[2H])C([2H])=C1[2H]
p173
sI173
VCOC1CCCC1
p174
sI174
VO=P(O)(O)O
p175
sI175
VO=S(=O)(O)O
p176
sI176
VO=S(=O)(F)Cl
p177
sI177
VF
p178
sI178
VN#N
p179
sI179
VN
p180
sI180
VO
p181
sI181
V[Ar]
p182
sI182
VBr
p183
sI183
V[H][H]
p184
sI184
VOO
p185
sI185
S'O([2H])[2H]'
p186
sI186
VO=[N+]([O-])O
p187
sI187
VCC1=CC(=C(C#N)C#N)C=C(/C=C/C2=CC=C(N(C)C)C=C2)O1
p188
sI188
VO=S(=O)(O)F
p189
sI189
VCNC.O=C(O)COC1=C(Cl)C=C(Cl)C=C1
p190
sI190
VO=C([O-])O.[Na+]
p191
sI191
VO=C([O-])[O-].[Na+]
p192
sI192
VO=C([O-])[O-].[K+]
p193
sI193
VNN.O
p194
sI194
V[Pd]
p195
sI195
V[2H]C([2H])([2H])N(C=O)C([2H])([2H])[2H]
p196
sI196
VCC1=CC=C(F)C(F)=C1F
p197
sI197
VReaxys Name paraffin oil
p198
sI198
S'Cc1ccccc1C'
p199
sI199
VReaxys Name mineral oil
p200
sI200
VReaxys Name paraffin
p201
sI201
S'Cc1ccccc1C'
p202
sI202
VReaxys Name oil
p203
sI203
S'CCc1ccccc1.Cc2ccc(C)cc2.Cc3cccc(C)c3.Cc4ccccc4C'
p204
sI204
VReaxys Name Petroleum ether
p205
sI205
VReaxys Name chloroform-d1
p206
sI206
S'CCCCCC'
p207
sI207
VReaxys Name PEG-400
p208
sI208
V[K+].[OH-]
p209
sI209
V[NH4+].[OH-]
p210
sI210
V[Na+].[OH-]
p211
sI211
VCN(C)C=O.CN(C)P(=O)(F)N(C)C
p212
sI212
VReaxys Name melt
p213
sI213
S'NC1=NC(=O)N(C=C1)[C@H]2C[C@H](O)[C@@H](CO[P](O)(O)=O)O2'
p214
sI214
VReaxys Name ice-water
p215
sI215
VReaxys Name phosphate buffer
p216
sI216
S'O.O.O.CCN1C=C(C(O)=O)C(=O)c2cnc(nc12)N3CCNCC3'
p217
sI217
VCN[C@@H](C)CC1=CC=CC=C1.O
p218
sI218
VOC(F)(F)CF
p219
sI219
VC1=CC=C(C2=CC=CC=C2)C=C1.C1=CC=C(OC2=CC=CC=C2)C=C1
p220
sI220
VC1CCOC1.O
p221
sI221
VOC(F)(C(F)F)C(F)(F)F
p222
sI222
VReaxys Name aq$dot$ phosphate buffer
p223
sI223
S'ClCCCl'
p224
sI224
S'CC(C)=CCO[P](O)(=O)O[P](O)(O)=O'
p225
sI225
VReaxys Name DMF (N,N-dimethylformamide)
p226
sI226
VReaxys Name poly(ethylene glycol)-400
p227
sI227
S'O([2H])[2H]'
p228
sI228
VC.[Pd]
p229
sI229
VReaxys Name acetate buffer
p230
sI230
VReaxys Name alkaline aq$dot$ solution
p231
sI231
VReaxys Name various solvents
p232
s.