(dp0
I0
S''
p1
sI1
VC1CCOC1
p2
sI2
VC1CCNCC1
p3
sI3
VCN1CCCC1
p4
sI4
VCC1CCCO1
p5
sI5
VC1COCOC1
p6
sI6
VC1COCCO1
p7
sI7
VC1=CSC=C1
p8
sI8
Vc1ccncc1
p9
sI9
VCN1CCCC1=O
p10
sI10
VCc1cc(C)nc(C)c1
p11
sI11
Vc1ccc2ncccc2c1
p12
sI12
VO=S1(=O)CCCC1
p13
sI13
VCN1CCN(C)C1=O
p14
sI14
VCN1CCCN(C)C1=O
p15
sI15
VC1CCOC1
p16
sI16
V[2H]C1=NC([2H])=C([2H])C([2H])=C1[2H]
p17
sI17
VO=C1CCCCC1
p18
sI18
VCC(=O)OC(C)=O
p19
sI19
VNCCO
p20
sI20
VOCCO
p21
sI21
VCC1CCCCC1
p22
sI22
VNC=O
p23
sI23
VCC(=O)O
p24
sI24
VCS(C)=O
p25
sI25
VCCC(=O)O
p26
sI26
VCCOC(C)=O
p27
sI27
VCOc1ccccc1
p28
sI28
VN#Cc1ccccc1
p29
sI29
VCCC(=O)OC(=O)CC
p30
sI30
VCN(C)c1ccccc1
p31
sI31
VO=[N+]([O-])c1ccccc1
p32
sI32
VCNC
p33
sI33
VNCCN
p34
sI34
VClCCCl
p35
sI35
VBrCCBr
p36
sI36
VCCNCC
p37
sI37
VCCN(CC)CC
p38
sI38
VCCN(C(C)C)C(C)C
p39
sI39
VCC(=O)Cl
p40
sI40
VCN(C)C=O
p41
sI41
VCCOC(OCC)OCC
p42
sI42
VCC(=O)CC(C)C
p43
sI43
VCC1=CC=CC(C)=C1
p44
sI44
VClC1=CC=CC=C1
p45
sI45
VClC1=C(Cl)C=CC=C1
p46
sI46
VCC(C)O
p47
sI47
VCC(C)=O
p48
sI48
VOCC(O)CO
p49
sI49
VCCC(=O)CC
p50
sI50
VCc1ccccc1
p51
sI51
VCOC(=O)OC
p52
sI52
VCN
p53
sI53
VCC#N
p54
sI54
VCCC(C)=O
p55
sI55
VO=C(O)C(F)(F)F
p56
sI56
VCCN(CC)C1=CC=CC=C1
p57
sI57
VO=C(OC(=O)C(F)(F)F)C(F)(F)F
p58
sI58
VCCS
p59
sI59
VCCC(C)O
p60
sI60
VCCC#N
p61
sI61
VC1CCC2CCCCC2C1
p62
sI62
VOCC1=CC=CC=C1
p63
sI63
VCC(C)(C)O
p64
sI64
VC1=CCCCC1
p65
sI65
VC[C@H]1CC[C@@](C)(O)CC1
p66
sI66
VCC1=CC(C)=CC(C)=C1
p67
sI67
VO=P(Cl)(Cl)Cl
p68
sI68
VCCOC(=O)OCC
p69
sI69
VClC1=CC=C(Cl)C(Cl)=C1
p70
sI70
VCCCCC
p71
sI71
VBrCBr
p72
sI72
VCCCCO
p73
sI73
VCCCCCCO
p74
sI74
VClC(Cl)C(Cl)Cl
p75
sI75
VOCCOCCO
p76
sI76
Vc1ccccc1
p77
sI77
VOCCO
p78
sI78
VOc1ccccc1
p79
sI79
VCl/C=C\u005cCl
p80
sI80
VCNC(C)=O
p81
sI81
VCl
p82
sI82
VCO
p83
sI83
VCCCO
p84
sI84
VCCOCCO
p85
sI85
VS=C=S
p86
sI86
VClC(Cl)(Cl)Cl
p87
sI87
VCN(C)P(=O)(N(C)C)N(C)C
p88
sI88
VCOCCOC
p89
sI89
VO=CO
p90
sI90
VO=S(Cl)Cl
p91
sI91
VCCN(=O)=O
p92
sI92
V[O-][Cl+3]([O-])([O-])O
p93
sI93
VFC1=CC=CC=C1
p94
sI94
VBrC1=CC=CC=C1
p95
sI95
V[2H]C([2H])([2H])S(=O)C([2H])([2H])[2H]
p96
sI96
VClC(Cl)=C(Cl)Cl
p97
sI97
V[2H]C1([2H])OC([2H])([2H])C([2H])([2H])OC1([2H])[2H]
p98
sI98
VCC(O)CO
p99
sI99
VCCC(C)(C)O
p100
sI100
VCCCC#N
p101
sI101
Vc1ccc(Oc2ccccc2)cc1
p102
sI102
VCl/C=C/Cl
p103
sI103
VCS(=O)(=O)O
p104
sI104
VC1=CC=C2CCCCC2=C1
p105
sI105
VCC1(C)C=CC=CC1
p106
sI106
VC1=CC=C(C2=CC=CC=C2)C=C1
p107
sI107
VFC1=C(F)C(F)=C(F)C(F)=C1F
p108
sI108
VCCCCCCCC
p109
sI109
VCC(C)CC(C)(C)C
p110
sI110
VCCOCC
p111
sI111
VCC(Cl)Cl
p112
sI112
VCCCCCCCCC
p113
sI113
VCCCCCCCCCC
p114
sI114
VCCCCCCCCCCCC
p115
sI115
VReaxys Name chloroform-d1
p116
sI116
VC[N+](=O)[O-]
p117
sI117
VCOCCOCCOCCOC
p118
sI118
S'Reaxys ID 1702935'
p119
sI119
VCCO
p120
sI120
VCC(C)CCO
p121
sI121
VCCC(C)C
p122
sI122
VCCCCCC
p123
sI123
VCCCC(C)C
p124
sI124
VCOC
p125
sI125
VCCCCCCC
p126
sI126
VCCOC
p127
sI127
VClCCl
p128
sI128
VCC(C)CO
p129
sI129
VCOC(C)(C)C
p130
sI130
V[2H]OC
p131
sI131
VCCCCCO
p132
sI132
VFC(Cl)Cl
p133
sI133
VClC(Cl)Cl
p134
sI134
VCOCCO
p135
sI135
V[2H]OCC
p136
sI136
VCC(C)OC(C)C
p137
sI137
VCC(Cl)(Cl)Cl
p138
sI138
VClCC(Cl)Cl
p139
sI139
VFC(F)(Cl)Cl
p140
sI140
VFC(Cl)(Cl)Cl
p141
sI141
VCCCCOCCCC
p142
sI142
VCCOCCOCC
p143
sI143
VOCC(F)(F)F
p144
sI144
V[2H]OC([2H])([2H])[2H]
p145
sI145
VClCCl
p146
sI146
VCOCCOCCOC
p147
sI147
VCCCCCCCCCCCCCCCC
p148
sI148
VCOC(C)=O
p149
sI149
VClC=C(Cl)Cl
p150
sI150
VCC(=O)N(C)C
p151
sI151
VCC(C)C(N)=O
p152
sI152
V[2H]C([2H])([2H])C#N
p153
sI153
VFC(F)(Cl)C(F)(Cl)Cl
p154
sI154
VClC(Cl)(Cl)C(Cl)(Cl)Cl
p155
sI155
VCC(=O)OC(C)C
p156
sI156
VCCCCOC(C)=O
p157
sI157
VO=S(=O)(O)C(F)(F)F
p158
sI158
VCC1=CC=CC=C1C
p159
sI159
VOC(C(F)(F)F)C(F)(F)F
p160
sI160
VOCCOCCOCCOCCOCCOCCOCCOCCOCCOCCO
p161
sI161
VC1CCCC1
p162
sI162
VC1CCCCC1
p163
sI163
VO=C=O
p164
sI164
VCC1=CC=C(C)C=C1
p165
sI165
VCCC1=CC=CC=C1
p166
sI166
V[2H]C1=C([2H])C([2H])=C([2H])C([2H])=C1[2H]
p167
sI167
VFC(F)(F)C1=CC=CC=C1
p168
sI168
V[2H]C(=O)N(C([2H])([2H])[2H])C([2H])([2H])[2H]
p169
sI169
V[2H]C1([2H])C([2H])([2H])C([2H])([2H])C([2H])([2H])C([2H])([2H])C1([2H])[2H]
p170
sI170
V[2H]C1=C([2H])C([2H])=C(C([2H])([2H])[2H])C([2H])=C1[2H]
p171
sI171
VCOC1CCCC1
p172
sI172
VO=P(O)(O)O
p173
sI173
VO=S(=O)(O)O
p174
sI174
VO=S(=O)(F)Cl
p175
sI175
VF
p176
sI176
VN#N
p177
sI177
VN
p178
sI178
VO
p179
sI179
V[Ar]
p180
sI180
VBr
p181
sI181
V[H][H]
p182
sI182
VOO
p183
sI183
S'O([2H])[2H]'
p184
sI184
VO=[N+]([O-])O
p185
sI185
VCC1=CC(=C(C#N)C#N)C=C(/C=C/C2=CC=C(N(C)C)C=C2)O1
p186
sI186
VO=S(=O)(O)F
p187
sI187
VCNC.O=C(O)COC1=C(Cl)C=C(Cl)C=C1
p188
sI188
VO=C([O-])O.[Na+]
p189
sI189
VO=C([O-])[O-].[Na+]
p190
sI190
VO=C([O-])[O-].[K+]
p191
sI191
VNN.O
p192
sI192
V[Pd]
p193
sI193
V[2H]C([2H])([2H])N(C=O)C([2H])([2H])[2H]
p194
sI194
VCC1=CC=C(F)C(F)=C1F
p195
sI195
VReaxys Name paraffin oil
p196
sI196
S'Cc1ccccc1C'
p197
sI197
VReaxys Name mineral oil
p198
sI198
VReaxys Name paraffin
p199
sI199
S'Cc1ccccc1C'
p200
sI200
VReaxys Name oil
p201
sI201
S'CCc1ccccc1.Cc2ccc(C)cc2.Cc3cccc(C)c3.Cc4ccccc4C'
p202
sI202
VReaxys Name Petroleum ether
p203
sI203
VReaxys Name chloroform-d1
p204
sI204
S'CCCCCC'
p205
sI205
VReaxys Name PEG-400
p206
sI206
V[K+].[OH-]
p207
sI207
V[NH4+].[OH-]
p208
sI208
V[Na+].[OH-]
p209
sI209
VCN(C)C=O.CN(C)P(=O)(F)N(C)C
p210
sI210
S'NC1=NC(=O)N(C=C1)[C@H]2C[C@H](O)[C@@H](CO[P](O)(O)=O)O2'
p211
sI211
VReaxys Name ice-water
p212
sI212
VReaxys Name phosphate buffer
p213
sI213
S'O.O.O.CCN1C=C(C(O)=O)C(=O)c2cnc(nc12)N3CCNCC3'
p214
sI214
VCN[C@@H](C)CC1=CC=CC=C1.O
p215
sI215
VOC(F)(F)CF
p216
sI216
VC1=CC=C(C2=CC=CC=C2)C=C1.C1=CC=C(OC2=CC=CC=C2)C=C1
p217
sI217
VC1CCOC1.O
p218
sI218
VOC(F)(C(F)F)C(F)(F)F
p219
sI219
VReaxys Name aq$dot$ phosphate buffer
p220
sI220
S'ClCCCl'
p221
sI221
S'CC(C)=CCO[P](O)(=O)O[P](O)(O)=O'
p222
sI222
VReaxys Name DMF (N,N-dimethylformamide)
p223
sI223
S'O([2H])[2H]'
p224
sI224
VC.[Pd]
p225
sI225
VReaxys Name acetate buffer
p226
sI226
VReaxys Name alkaline aq$dot$ solution
p227
sI227
VReaxys Name various solvents
p228
s.